Archive member included because of file (symbol)

c:/PSDK3v2/psl1ght/ppu/lib\liblv2.a(process_wrapper.o)
                              loader.o (sysProcessExitSpawn2)
c:/PSDK3v2/psl1ght/ppu/lib\liblv2.a(sprx.o)
                              c:/PSDK3v2/psl1ght/ppu/lib\liblv2.a(process_wrapper.o) (sysProcessExitSpawn2Ex)
c:/psdk3v2/ps3dev/ppu/bin/../lib/gcc/powerpc64-ps3-elf/4.5.2/../../../../powerpc64-ps3-elf/lib\libsysbase.a(syscalls.o)
                              c:/psdk3v2/ps3dev/ppu/bin/../lib/gcc/powerpc64-ps3-elf/4.5.2/../../../../powerpc64-ps3-elf/lib/lv2-crt0.o (__syscalls)
c:/psdk3v2/ps3dev/ppu/bin/../lib/gcc/powerpc64-ps3-elf/4.5.2/../../../../powerpc64-ps3-elf/lib\libc.a(lib_a-exit.o)
                              c:/psdk3v2/ps3dev/ppu/bin/../lib/gcc/powerpc64-ps3-elf/4.5.2/../../../../powerpc64-ps3-elf/lib/lv2-crt0.o (exit)
c:/psdk3v2/ps3dev/ppu/bin/../lib/gcc/powerpc64-ps3-elf/4.5.2/../../../../powerpc64-ps3-elf/lib\libc.a(lib_a-impure.o)
                              c:/psdk3v2/ps3dev/ppu/bin/../lib/gcc/powerpc64-ps3-elf/4.5.2/../../../../powerpc64-ps3-elf/lib\libc.a(lib_a-exit.o) (_global_impure_ptr)
c:/psdk3v2/ps3dev/ppu/bin/../lib/gcc/powerpc64-ps3-elf/4.5.2/../../../../powerpc64-ps3-elf/lib\libc.a(lib_a-malloc.o)
                              c:/PSDK3v2/psl1ght/ppu/lib\liblv2.a(process_wrapper.o) (malloc)
c:/psdk3v2/ps3dev/ppu/bin/../lib/gcc/powerpc64-ps3-elf/4.5.2/../../../../powerpc64-ps3-elf/lib\libc.a(lib_a-mallocr.o)
                              c:/psdk3v2/ps3dev/ppu/bin/../lib/gcc/powerpc64-ps3-elf/4.5.2/../../../../powerpc64-ps3-elf/lib\libc.a(lib_a-malloc.o) (_malloc_r)
c:/psdk3v2/ps3dev/ppu/bin/../lib/gcc/powerpc64-ps3-elf/4.5.2/../../../../powerpc64-ps3-elf/lib\libc.a(lib_a-mlock.o)
                              c:/psdk3v2/ps3dev/ppu/bin/../lib/gcc/powerpc64-ps3-elf/4.5.2/../../../../powerpc64-ps3-elf/lib\libc.a(lib_a-mallocr.o) (__malloc_lock)
c:/psdk3v2/ps3dev/ppu/bin/../lib/gcc/powerpc64-ps3-elf/4.5.2/../../../../powerpc64-ps3-elf/lib\libc.a(lib_a-strcpy.o)
                              loader.o (strcpy)
c:/psdk3v2/ps3dev/ppu/bin/../lib/gcc/powerpc64-ps3-elf/4.5.2/../../../../powerpc64-ps3-elf/lib\libc.a(lib_a-strlen.o)
                              loader.o (strlen)
c:/psdk3v2/ps3dev/ppu/bin/../lib/gcc/powerpc64-ps3-elf/4.5.2/../../../../powerpc64-ps3-elf/lib\libc.a(lib_a-strncmp.o)
                              loader.o (strncmp)
c:/psdk3v2/ps3dev/ppu/bin/../lib/gcc/powerpc64-ps3-elf/4.5.2/../../../../powerpc64-ps3-elf/lib\libc.a(lib_a-__call_atexit.o)
                              c:/psdk3v2/ps3dev/ppu/bin/../lib/gcc/powerpc64-ps3-elf/4.5.2/../../../../powerpc64-ps3-elf/lib\libc.a(lib_a-exit.o) (__call_exitprocs)
c:/psdk3v2/ps3dev/ppu/bin/../lib/gcc/powerpc64-ps3-elf/4.5.2/../../../../powerpc64-ps3-elf/lib\libc.a(lib_a-freer.o)
                              c:/psdk3v2/ps3dev/ppu/bin/../lib/gcc/powerpc64-ps3-elf/4.5.2/../../../../powerpc64-ps3-elf/lib\libc.a(lib_a-malloc.o) (_free_r)
c:/psdk3v2/ps3dev/ppu/bin/../lib/gcc/powerpc64-ps3-elf/4.5.2/../../../../powerpc64-ps3-elf/lib\libc.a(lib_a-getreent.o)
                              c:/psdk3v2/ps3dev/ppu/bin/../lib/gcc/powerpc64-ps3-elf/4.5.2/../../../../powerpc64-ps3-elf/lib\libc.a(lib_a-malloc.o) (__getreent)
c:/psdk3v2/ps3dev/ppu/bin/../lib/gcc/powerpc64-ps3-elf/4.5.2/../../../../powerpc64-ps3-elf/lib\libc.a(lib_a-lock_recursive.o)
                              c:/psdk3v2/ps3dev/ppu/bin/../lib/gcc/powerpc64-ps3-elf/4.5.2/../../../../powerpc64-ps3-elf/lib\libc.a(lib_a-mlock.o) (__libc_lock_acquire_recursive)
c:/psdk3v2/ps3dev/ppu/bin/../lib/gcc/powerpc64-ps3-elf/4.5.2/../../../../powerpc64-ps3-elf/lib\libc.a(lib_a-memset.o)
                              c:/psdk3v2/ps3dev/ppu/bin/../lib/gcc/powerpc64-ps3-elf/4.5.2/../../../../powerpc64-ps3-elf/lib\libc.a(lib_a-getreent.o) (memset)
c:/psdk3v2/ps3dev/ppu/bin/../lib/gcc/powerpc64-ps3-elf/4.5.2/../../../../powerpc64-ps3-elf/lib\libc.a(lib_a-__atexit.o)
                              c:/psdk3v2/ps3dev/ppu/bin/../lib/gcc/powerpc64-ps3-elf/4.5.2/../../../../powerpc64-ps3-elf/lib\libc.a(lib_a-__call_atexit.o) (__atexit_lock)
c:/psdk3v2/ps3dev/ppu/bin/../lib/gcc/powerpc64-ps3-elf/4.5.2/../../../../powerpc64-ps3-elf/lib\libc.a(lib_a-lock_internal.o)
                              c:/psdk3v2/ps3dev/ppu/bin/../lib/gcc/powerpc64-ps3-elf/4.5.2/../../../../powerpc64-ps3-elf/lib\libc.a(lib_a-lock_recursive.o) (__libc_auto_lock_allocate)
c:/psdk3v2/ps3dev/ppu/bin/../lib/gcc/powerpc64-ps3-elf/4.5.2/../../../../powerpc64-ps3-elf/lib\libc.a(lib_a-abort.o)
                              c:/psdk3v2/ps3dev/ppu/bin/../lib/gcc/powerpc64-ps3-elf/4.5.2/../../../../powerpc64-ps3-elf/lib\libc.a(lib_a-lock_internal.o) (abort)
c:/psdk3v2/ps3dev/ppu/bin/../lib/gcc/powerpc64-ps3-elf/4.5.2/../../../../powerpc64-ps3-elf/lib\libc.a(lib_a-signal.o)
                              c:/psdk3v2/ps3dev/ppu/bin/../lib/gcc/powerpc64-ps3-elf/4.5.2/../../../../powerpc64-ps3-elf/lib\libc.a(lib_a-abort.o) (raise)
c:/PSDK3v2/psl1ght/ppu/lib\librt.a(sbrk.o)
                              c:/psdk3v2/ps3dev/ppu/bin/../lib/gcc/powerpc64-ps3-elf/4.5.2/../../../../powerpc64-ps3-elf/lib/lv2-crt0.o (__librt_sbrk_r)
c:/PSDK3v2/psl1ght/ppu/lib\librt.a(exit.o)
                              c:/psdk3v2/ps3dev/ppu/bin/../lib/gcc/powerpc64-ps3-elf/4.5.2/../../../../powerpc64-ps3-elf/lib/lv2-crt0.o (__librt_exit)
c:/PSDK3v2/psl1ght/ppu/lib\librt.a(close.o)
                              c:/psdk3v2/ps3dev/ppu/bin/../lib/gcc/powerpc64-ps3-elf/4.5.2/../../../../powerpc64-ps3-elf/lib/lv2-crt0.o (__librt_close_r)
c:/PSDK3v2/psl1ght/ppu/lib\librt.a(lseek.o)
                              c:/psdk3v2/ps3dev/ppu/bin/../lib/gcc/powerpc64-ps3-elf/4.5.2/../../../../powerpc64-ps3-elf/lib/lv2-crt0.o (__librt_lseek_r)
c:/PSDK3v2/psl1ght/ppu/lib\librt.a(read.o)
                              c:/psdk3v2/ps3dev/ppu/bin/../lib/gcc/powerpc64-ps3-elf/4.5.2/../../../../powerpc64-ps3-elf/lib/lv2-crt0.o (__librt_read_r)
c:/PSDK3v2/psl1ght/ppu/lib\librt.a(open.o)
                              c:/psdk3v2/ps3dev/ppu/bin/../lib/gcc/powerpc64-ps3-elf/4.5.2/../../../../powerpc64-ps3-elf/lib/lv2-crt0.o (__librt_open_r)
c:/PSDK3v2/psl1ght/ppu/lib\librt.a(sleep.o)
                              c:/psdk3v2/ps3dev/ppu/bin/../lib/gcc/powerpc64-ps3-elf/4.5.2/../../../../powerpc64-ps3-elf/lib/lv2-crt0.o (__librt_usleep_r)
c:/PSDK3v2/psl1ght/ppu/lib\librt.a(write.o)
                              c:/psdk3v2/ps3dev/ppu/bin/../lib/gcc/powerpc64-ps3-elf/4.5.2/../../../../powerpc64-ps3-elf/lib/lv2-crt0.o (__librt_write_r)
c:/PSDK3v2/psl1ght/ppu/lib\librt.a(fstat.o)
                              c:/psdk3v2/ps3dev/ppu/bin/../lib/gcc/powerpc64-ps3-elf/4.5.2/../../../../powerpc64-ps3-elf/lib/lv2-crt0.o (__librt_fstat_r)
c:/PSDK3v2/psl1ght/ppu/lib\librt.a(socket.o)
                              c:/PSDK3v2/psl1ght/ppu/lib\librt.a(write.o) (send)
c:/PSDK3v2/psl1ght/ppu/lib\librt.a(lock.o)
                              c:/psdk3v2/ps3dev/ppu/bin/../lib/gcc/powerpc64-ps3-elf/4.5.2/../../../../powerpc64-ps3-elf/lib/lv2-crt0.o (__librt_sys_lwmutex_create_r)
c:/PSDK3v2/psl1ght/ppu/lib\librt.a(dirent.o)
                              c:/psdk3v2/ps3dev/ppu/bin/../lib/gcc/powerpc64-ps3-elf/4.5.2/../../../../powerpc64-ps3-elf/lib/lv2-crt0.o (__librt_opendir_r)
c:/PSDK3v2/psl1ght/ppu/lib\librt.a(mkdir.o)
                              c:/psdk3v2/ps3dev/ppu/bin/../lib/gcc/powerpc64-ps3-elf/4.5.2/../../../../powerpc64-ps3-elf/lib/lv2-crt0.o (__librt_mkdir_r)
c:/PSDK3v2/psl1ght/ppu/lib\librt.a(times.o)
                              c:/psdk3v2/ps3dev/ppu/bin/../lib/gcc/powerpc64-ps3-elf/4.5.2/../../../../powerpc64-ps3-elf/lib/lv2-crt0.o (__librt_times_r)
c:/PSDK3v2/psl1ght/ppu/lib\librt.a(umask.o)
                              c:/psdk3v2/ps3dev/ppu/bin/../lib/gcc/powerpc64-ps3-elf/4.5.2/../../../../powerpc64-ps3-elf/lib/lv2-crt0.o (__librt_umask_r)
c:/PSDK3v2/psl1ght/ppu/lib\librt.a(lv2errno.o)
                              c:/PSDK3v2/psl1ght/ppu/lib\librt.a(socket.o) (lv2errno)
c:/PSDK3v2/psl1ght/ppu/lib\librt.a(heap.o)
                              c:/PSDK3v2/psl1ght/ppu/lib\librt.a(sbrk.o) (heapInit)
c:/PSDK3v2/psl1ght/ppu/lib\librt.a(chmod.o)
                              c:/psdk3v2/ps3dev/ppu/bin/../lib/gcc/powerpc64-ps3-elf/4.5.2/../../../../powerpc64-ps3-elf/lib/lv2-crt0.o (__librt_chmod_r)
c:/PSDK3v2/psl1ght/ppu/lib\librt.a(rmdir.o)
                              c:/psdk3v2/ps3dev/ppu/bin/../lib/gcc/powerpc64-ps3-elf/4.5.2/../../../../powerpc64-ps3-elf/lib/lv2-crt0.o (__librt_rmdir_r)
c:/PSDK3v2/psl1ght/ppu/lib\librt.a(isatty.o)
                              c:/psdk3v2/ps3dev/ppu/bin/../lib/gcc/powerpc64-ps3-elf/4.5.2/../../../../powerpc64-ps3-elf/lib/lv2-crt0.o (__librt_isatty_r)
c:/PSDK3v2/psl1ght/ppu/lib\librt.a(gettod.o)
                              c:/psdk3v2/ps3dev/ppu/bin/../lib/gcc/powerpc64-ps3-elf/4.5.2/../../../../powerpc64-ps3-elf/lib/lv2-crt0.o (__librt_gettod_r)
c:/PSDK3v2/psl1ght/ppu/lib\librt.a(settod.o)
                              c:/psdk3v2/ps3dev/ppu/bin/../lib/gcc/powerpc64-ps3-elf/4.5.2/../../../../powerpc64-ps3-elf/lib/lv2-crt0.o (__librt_settod_r)
c:/psdk3v2/ps3dev/ppu/bin/../lib/gcc/powerpc64-ps3-elf/4.5.2/../../../../powerpc64-ps3-elf/lib\libsysbase.a(sbrk.o)
                              c:/psdk3v2/ps3dev/ppu/bin/../lib/gcc/powerpc64-ps3-elf/4.5.2/../../../../powerpc64-ps3-elf/lib\libc.a(lib_a-mallocr.o) (_sbrk_r)
c:/psdk3v2/ps3dev/ppu/bin/../lib/gcc/powerpc64-ps3-elf/4.5.2/../../../../powerpc64-ps3-elf/lib\libsysbase.a(_exit.o)
                              c:/psdk3v2/ps3dev/ppu/bin/../lib/gcc/powerpc64-ps3-elf/4.5.2/../../../../powerpc64-ps3-elf/lib\libc.a(lib_a-exit.o) (_exit)
c:/psdk3v2/ps3dev/ppu/bin/../lib/gcc/powerpc64-ps3-elf/4.5.2/../../../../powerpc64-ps3-elf/lib\libsysbase.a(lock.o)
                              c:/psdk3v2/ps3dev/ppu/bin/../lib/gcc/powerpc64-ps3-elf/4.5.2/../../../../powerpc64-ps3-elf/lib\libc.a(lib_a-lock_recursive.o) (sys_lwmutex_create)
c:/psdk3v2/ps3dev/ppu/bin/../lib/gcc/powerpc64-ps3-elf/4.5.2/../../../../powerpc64-ps3-elf/lib\libsysbase.a(getpid.o)
                              c:/psdk3v2/ps3dev/ppu/bin/../lib/gcc/powerpc64-ps3-elf/4.5.2/../../../../powerpc64-ps3-elf/lib\libc.a(lib_a-signal.o) (_getpid_r)
c:/psdk3v2/ps3dev/ppu/bin/../lib/gcc/powerpc64-ps3-elf/4.5.2/../../../../powerpc64-ps3-elf/lib\libsysbase.a(kill.o)
                              c:/psdk3v2/ps3dev/ppu/bin/../lib/gcc/powerpc64-ps3-elf/4.5.2/../../../../powerpc64-ps3-elf/lib\libc.a(lib_a-signal.o) (_kill_r)
c:/psdk3v2/ps3dev/ppu/bin/../lib/gcc/powerpc64-ps3-elf/4.5.2/../../../../powerpc64-ps3-elf/lib\libc.a(lib_a-errno.o)
                              c:/PSDK3v2/psl1ght/ppu/lib\librt.a(socket.o) (__errno)
c:/psdk3v2/ps3dev/ppu/bin/../lib/gcc/powerpc64-ps3-elf/4.5.2/../../../../powerpc64-ps3-elf/lib\libc.a(lib_a-sscanf.o)
                              c:/PSDK3v2/psl1ght/ppu/lib\librt.a(socket.o) (sscanf)
c:/psdk3v2/ps3dev/ppu/bin/../lib/gcc/powerpc64-ps3-elf/4.5.2/../../../../powerpc64-ps3-elf/lib\libc.a(lib_a-stdio.o)
                              c:/psdk3v2/ps3dev/ppu/bin/../lib/gcc/powerpc64-ps3-elf/4.5.2/../../../../powerpc64-ps3-elf/lib\libc.a(lib_a-sscanf.o) (__seofread)
c:/psdk3v2/ps3dev/ppu/bin/../lib/gcc/powerpc64-ps3-elf/4.5.2/../../../../powerpc64-ps3-elf/lib\libc.a(lib_a-strncpy.o)
                              c:/PSDK3v2/psl1ght/ppu/lib\librt.a(dirent.o) (strncpy)
c:/psdk3v2/ps3dev/ppu/bin/../lib/gcc/powerpc64-ps3-elf/4.5.2/../../../../powerpc64-ps3-elf/lib\libc.a(lib_a-svfscanf.o)
                              c:/psdk3v2/ps3dev/ppu/bin/../lib/gcc/powerpc64-ps3-elf/4.5.2/../../../../powerpc64-ps3-elf/lib\libc.a(lib_a-sscanf.o) (__ssvfscanf_r)
c:/psdk3v2/ps3dev/ppu/bin/../lib/gcc/powerpc64-ps3-elf/4.5.2/../../../../powerpc64-ps3-elf/lib\libc.a(lib_a-ctype_.o)
                              c:/psdk3v2/ps3dev/ppu/bin/../lib/gcc/powerpc64-ps3-elf/4.5.2/../../../../powerpc64-ps3-elf/lib\libc.a(lib_a-svfscanf.o) (__ctype_ptr__)
c:/psdk3v2/ps3dev/ppu/bin/../lib/gcc/powerpc64-ps3-elf/4.5.2/../../../../powerpc64-ps3-elf/lib\libc.a(lib_a-findfp.o)
                              c:/psdk3v2/ps3dev/ppu/bin/../lib/gcc/powerpc64-ps3-elf/4.5.2/../../../../powerpc64-ps3-elf/lib\libc.a(lib_a-svfscanf.o) (__sfp_lock_acquire)
c:/psdk3v2/ps3dev/ppu/bin/../lib/gcc/powerpc64-ps3-elf/4.5.2/../../../../powerpc64-ps3-elf/lib\libc.a(lib_a-fwalk.o)
                              c:/psdk3v2/ps3dev/ppu/bin/../lib/gcc/powerpc64-ps3-elf/4.5.2/../../../../powerpc64-ps3-elf/lib\libc.a(lib_a-findfp.o) (_fwalk)
c:/psdk3v2/ps3dev/ppu/bin/../lib/gcc/powerpc64-ps3-elf/4.5.2/../../../../powerpc64-ps3-elf/lib\libc.a(lib_a-iswspace.o)
                              c:/psdk3v2/ps3dev/ppu/bin/../lib/gcc/powerpc64-ps3-elf/4.5.2/../../../../powerpc64-ps3-elf/lib\libc.a(lib_a-svfscanf.o) (iswspace)
c:/psdk3v2/ps3dev/ppu/bin/../lib/gcc/powerpc64-ps3-elf/4.5.2/../../../../powerpc64-ps3-elf/lib\libc.a(lib_a-locale.o)
                              c:/psdk3v2/ps3dev/ppu/bin/../lib/gcc/powerpc64-ps3-elf/4.5.2/../../../../powerpc64-ps3-elf/lib\libc.a(lib_a-svfscanf.o) (__locale_mb_cur_max)
c:/psdk3v2/ps3dev/ppu/bin/../lib/gcc/powerpc64-ps3-elf/4.5.2/../../../../powerpc64-ps3-elf/lib\libc.a(lib_a-mbrtowc.o)
                              c:/psdk3v2/ps3dev/ppu/bin/../lib/gcc/powerpc64-ps3-elf/4.5.2/../../../../powerpc64-ps3-elf/lib\libc.a(lib_a-svfscanf.o) (_mbrtowc_r)
c:/psdk3v2/ps3dev/ppu/bin/../lib/gcc/powerpc64-ps3-elf/4.5.2/../../../../powerpc64-ps3-elf/lib\libc.a(lib_a-mbtowc_r.o)
                              c:/psdk3v2/ps3dev/ppu/bin/../lib/gcc/powerpc64-ps3-elf/4.5.2/../../../../powerpc64-ps3-elf/lib\libc.a(lib_a-mbrtowc.o) (__mbtowc)
c:/psdk3v2/ps3dev/ppu/bin/../lib/gcc/powerpc64-ps3-elf/4.5.2/../../../../powerpc64-ps3-elf/lib\libc.a(lib_a-s_fpclassify.o)
                              c:/psdk3v2/ps3dev/ppu/bin/../lib/gcc/powerpc64-ps3-elf/4.5.2/../../../../powerpc64-ps3-elf/lib\libc.a(lib_a-svfscanf.o) (__fpclassifyd)
c:/psdk3v2/ps3dev/ppu/bin/../lib/gcc/powerpc64-ps3-elf/4.5.2/../../../../powerpc64-ps3-elf/lib\libc.a(lib_a-sccl.o)
                              c:/psdk3v2/ps3dev/ppu/bin/../lib/gcc/powerpc64-ps3-elf/4.5.2/../../../../powerpc64-ps3-elf/lib\libc.a(lib_a-svfscanf.o) (__sccl)
c:/psdk3v2/ps3dev/ppu/bin/../lib/gcc/powerpc64-ps3-elf/4.5.2/../../../../powerpc64-ps3-elf/lib\libc.a(lib_a-sf_nan.o)
                              c:/psdk3v2/ps3dev/ppu/bin/../lib/gcc/powerpc64-ps3-elf/4.5.2/../../../../powerpc64-ps3-elf/lib\libc.a(lib_a-svfscanf.o) (nanf)
c:/psdk3v2/ps3dev/ppu/bin/../lib/gcc/powerpc64-ps3-elf/4.5.2/../../../../powerpc64-ps3-elf/lib\libc.a(lib_a-sprintf.o)
                              c:/psdk3v2/ps3dev/ppu/bin/../lib/gcc/powerpc64-ps3-elf/4.5.2/../../../../powerpc64-ps3-elf/lib\libc.a(lib_a-svfscanf.o) (sprintf)
c:/psdk3v2/ps3dev/ppu/bin/../lib/gcc/powerpc64-ps3-elf/4.5.2/../../../../powerpc64-ps3-elf/lib\libc.a(lib_a-strcmp.o)
                              c:/psdk3v2/ps3dev/ppu/bin/../lib/gcc/powerpc64-ps3-elf/4.5.2/../../../../powerpc64-ps3-elf/lib\libc.a(lib_a-locale.o) (strcmp)
c:/psdk3v2/ps3dev/ppu/bin/../lib/gcc/powerpc64-ps3-elf/4.5.2/../../../../powerpc64-ps3-elf/lib\libc.a(lib_a-strtod.o)
                              c:/psdk3v2/ps3dev/ppu/bin/../lib/gcc/powerpc64-ps3-elf/4.5.2/../../../../powerpc64-ps3-elf/lib\libc.a(lib_a-svfscanf.o) (_strtod_r)
c:/psdk3v2/ps3dev/ppu/bin/../lib/gcc/powerpc64-ps3-elf/4.5.2/../../../../powerpc64-ps3-elf/lib\libc.a(lib_a-strtol.o)
                              c:/psdk3v2/ps3dev/ppu/bin/../lib/gcc/powerpc64-ps3-elf/4.5.2/../../../../powerpc64-ps3-elf/lib\libc.a(lib_a-svfscanf.o) (_strtol_r)
c:/psdk3v2/ps3dev/ppu/bin/../lib/gcc/powerpc64-ps3-elf/4.5.2/../../../../powerpc64-ps3-elf/lib\libc.a(lib_a-strtoll_r.o)
                              c:/psdk3v2/ps3dev/ppu/bin/../lib/gcc/powerpc64-ps3-elf/4.5.2/../../../../powerpc64-ps3-elf/lib\libc.a(lib_a-svfscanf.o) (_strtoll_r)
c:/psdk3v2/ps3dev/ppu/bin/../lib/gcc/powerpc64-ps3-elf/4.5.2/../../../../powerpc64-ps3-elf/lib\libc.a(lib_a-strtoul.o)
                              c:/psdk3v2/ps3dev/ppu/bin/../lib/gcc/powerpc64-ps3-elf/4.5.2/../../../../powerpc64-ps3-elf/lib\libc.a(lib_a-svfscanf.o) (_strtoul_r)
c:/psdk3v2/ps3dev/ppu/bin/../lib/gcc/powerpc64-ps3-elf/4.5.2/../../../../powerpc64-ps3-elf/lib\libc.a(lib_a-strtoull_r.o)
                              c:/psdk3v2/ps3dev/ppu/bin/../lib/gcc/powerpc64-ps3-elf/4.5.2/../../../../powerpc64-ps3-elf/lib\libc.a(lib_a-svfscanf.o) (_strtoull_r)
c:/psdk3v2/ps3dev/ppu/bin/../lib/gcc/powerpc64-ps3-elf/4.5.2/../../../../powerpc64-ps3-elf/lib\libc.a(lib_a-svfiscanf.o)
                              c:/psdk3v2/ps3dev/ppu/bin/../lib/gcc/powerpc64-ps3-elf/4.5.2/../../../../powerpc64-ps3-elf/lib\libc.a(lib_a-svfscanf.o) (_sungetc_r)
c:/psdk3v2/ps3dev/ppu/bin/../lib/gcc/powerpc64-ps3-elf/4.5.2/../../../../powerpc64-ps3-elf/lib\libc.a(lib_a-svfprintf.o)
                              c:/psdk3v2/ps3dev/ppu/bin/../lib/gcc/powerpc64-ps3-elf/4.5.2/../../../../powerpc64-ps3-elf/lib\libc.a(lib_a-sprintf.o) (_svfprintf_r)
c:/psdk3v2/ps3dev/ppu/bin/../lib/gcc/powerpc64-ps3-elf/4.5.2/../../../../powerpc64-ps3-elf/lib\libc.a(lib_a-ungetc.o)
                              c:/psdk3v2/ps3dev/ppu/bin/../lib/gcc/powerpc64-ps3-elf/4.5.2/../../../../powerpc64-ps3-elf/lib\libc.a(lib_a-svfiscanf.o) (__submore)
c:/psdk3v2/ps3dev/ppu/bin/../lib/gcc/powerpc64-ps3-elf/4.5.2/../../../../powerpc64-ps3-elf/lib\libc.a(lib_a-dtoa.o)
                              c:/psdk3v2/ps3dev/ppu/bin/../lib/gcc/powerpc64-ps3-elf/4.5.2/../../../../powerpc64-ps3-elf/lib\libc.a(lib_a-svfprintf.o) (_dtoa_r)
c:/psdk3v2/ps3dev/ppu/bin/../lib/gcc/powerpc64-ps3-elf/4.5.2/../../../../powerpc64-ps3-elf/lib\libc.a(lib_a-fclose.o)
                              c:/psdk3v2/ps3dev/ppu/bin/../lib/gcc/powerpc64-ps3-elf/4.5.2/../../../../powerpc64-ps3-elf/lib\libc.a(lib_a-findfp.o) (fclose)
c:/psdk3v2/ps3dev/ppu/bin/../lib/gcc/powerpc64-ps3-elf/4.5.2/../../../../powerpc64-ps3-elf/lib\libc.a(lib_a-fflush.o)
                              c:/psdk3v2/ps3dev/ppu/bin/../lib/gcc/powerpc64-ps3-elf/4.5.2/../../../../powerpc64-ps3-elf/lib\libc.a(lib_a-ungetc.o) (_fflush_r)
c:/psdk3v2/ps3dev/ppu/bin/../lib/gcc/powerpc64-ps3-elf/4.5.2/../../../../powerpc64-ps3-elf/lib\libc.a(lib_a-gdtoa-gethex.o)
                              c:/psdk3v2/ps3dev/ppu/bin/../lib/gcc/powerpc64-ps3-elf/4.5.2/../../../../powerpc64-ps3-elf/lib\libc.a(lib_a-strtod.o) (__gethex)
c:/psdk3v2/ps3dev/ppu/bin/../lib/gcc/powerpc64-ps3-elf/4.5.2/../../../../powerpc64-ps3-elf/lib\libc.a(lib_a-gdtoa-hexnan.o)
                              c:/psdk3v2/ps3dev/ppu/bin/../lib/gcc/powerpc64-ps3-elf/4.5.2/../../../../powerpc64-ps3-elf/lib\libc.a(lib_a-strtod.o) (__hexnan)
c:/psdk3v2/ps3dev/ppu/bin/../lib/gcc/powerpc64-ps3-elf/4.5.2/../../../../powerpc64-ps3-elf/lib\libc.a(lib_a-memchr.o)
                              c:/psdk3v2/ps3dev/ppu/bin/../lib/gcc/powerpc64-ps3-elf/4.5.2/../../../../powerpc64-ps3-elf/lib\libc.a(lib_a-svfprintf.o) (memchr)
c:/psdk3v2/ps3dev/ppu/bin/../lib/gcc/powerpc64-ps3-elf/4.5.2/../../../../powerpc64-ps3-elf/lib\libc.a(lib_a-memcpy.o)
                              c:/psdk3v2/ps3dev/ppu/bin/../lib/gcc/powerpc64-ps3-elf/4.5.2/../../../../powerpc64-ps3-elf/lib\libc.a(lib_a-strtod.o) (memcpy)
c:/psdk3v2/ps3dev/ppu/bin/../lib/gcc/powerpc64-ps3-elf/4.5.2/../../../../powerpc64-ps3-elf/lib\libc.a(lib_a-mprec.o)
                              c:/psdk3v2/ps3dev/ppu/bin/../lib/gcc/powerpc64-ps3-elf/4.5.2/../../../../powerpc64-ps3-elf/lib\libc.a(lib_a-strtod.o) (_Balloc)
c:/psdk3v2/ps3dev/ppu/bin/../lib/gcc/powerpc64-ps3-elf/4.5.2/../../../../powerpc64-ps3-elf/lib\libc.a(lib_a-reallocr.o)
                              c:/psdk3v2/ps3dev/ppu/bin/../lib/gcc/powerpc64-ps3-elf/4.5.2/../../../../powerpc64-ps3-elf/lib\libc.a(lib_a-ungetc.o) (_realloc_r)
c:/psdk3v2/ps3dev/ppu/bin/../lib/gcc/powerpc64-ps3-elf/4.5.2/../../../../powerpc64-ps3-elf/lib\libc.a(lib_a-svfiprintf.o)
                              c:/psdk3v2/ps3dev/ppu/bin/../lib/gcc/powerpc64-ps3-elf/4.5.2/../../../../powerpc64-ps3-elf/lib\libc.a(lib_a-svfprintf.o) (__ssprint_r)
c:/psdk3v2/ps3dev/ppu/bin/../lib/gcc/powerpc64-ps3-elf/4.5.2/../../../../powerpc64-ps3-elf/lib\libc.a(lib_a-callocr.o)
                              c:/psdk3v2/ps3dev/ppu/bin/../lib/gcc/powerpc64-ps3-elf/4.5.2/../../../../powerpc64-ps3-elf/lib\libc.a(lib_a-mprec.o) (_calloc_r)
c:/psdk3v2/ps3dev/ppu/bin/../lib/gcc/powerpc64-ps3-elf/4.5.2/../../../../powerpc64-ps3-elf/lib\libc.a(lib_a-memmove.o)
                              c:/psdk3v2/ps3dev/ppu/bin/../lib/gcc/powerpc64-ps3-elf/4.5.2/../../../../powerpc64-ps3-elf/lib\libc.a(lib_a-reallocr.o) (memmove)
c:/psdk3v2/ps3dev/ppu/bin/../lib/gcc/powerpc64-ps3-elf/4.5.2/../../../../powerpc64-ps3-elf/lib\libsysbase.a(close.o)
                              c:/psdk3v2/ps3dev/ppu/bin/../lib/gcc/powerpc64-ps3-elf/4.5.2/../../../../powerpc64-ps3-elf/lib\libc.a(lib_a-stdio.o) (_close_r)
c:/psdk3v2/ps3dev/ppu/bin/../lib/gcc/powerpc64-ps3-elf/4.5.2/../../../../powerpc64-ps3-elf/lib\libsysbase.a(lseek.o)
                              c:/psdk3v2/ps3dev/ppu/bin/../lib/gcc/powerpc64-ps3-elf/4.5.2/../../../../powerpc64-ps3-elf/lib\libc.a(lib_a-stdio.o) (_lseek_r)
c:/psdk3v2/ps3dev/ppu/bin/../lib/gcc/powerpc64-ps3-elf/4.5.2/../../../../powerpc64-ps3-elf/lib\libsysbase.a(read.o)
                              c:/psdk3v2/ps3dev/ppu/bin/../lib/gcc/powerpc64-ps3-elf/4.5.2/../../../../powerpc64-ps3-elf/lib\libc.a(lib_a-stdio.o) (_read_r)
c:/psdk3v2/ps3dev/ppu/bin/../lib/gcc/powerpc64-ps3-elf/4.5.2/../../../../powerpc64-ps3-elf/lib\libsysbase.a(write.o)
                              c:/psdk3v2/ps3dev/ppu/bin/../lib/gcc/powerpc64-ps3-elf/4.5.2/../../../../powerpc64-ps3-elf/lib\libc.a(lib_a-stdio.o) (_write_r)

Allocating common symbols
Common symbol       size              file

__hexdig            0x100             c:/psdk3v2/ps3dev/ppu/bin/../lib/gcc/powerpc64-ps3-elf/4.5.2/../../../../powerpc64-ps3-elf/lib\libc.a(lib_a-gdtoa-gethex.o)

Discarded input sections

 .note.GNU-stack
                0x0000000000000000        0x0 c:/PSDK3v2/psl1ght/ppu/lib\liblv2.a(sprx.o)

Memory Configuration

Name             Origin             Length             Attributes
*default*        0x0000000000000000 0xffffffffffffffff

Linker script and memory map

                0x0000000000010000                PROVIDE (__executable_start, 0x10000)
                0x0000000000010200                . = (0x10000 + SIZEOF_HEADERS)

.interp
 *(.interp)

.hash
 *(.hash)

.dynsym
 *(.dynsym)

.dynstr
 *(.dynstr)

.gnu.version
 *(.gnu.version)

.gnu.version_d
 *(.gnu.version_d)

.gnu.version_r
 *(.gnu.version_r)

.rel.dyn
 *(.rel.init)
 *(.rel.text .rel.text.* .rel.gnu.linkonce.t.*)
 *(.rel.fini)
 *(.rel.rodata .rel.rodata.* .rel.gnu.linkonce.r.*)
 *(.rel.data.rel.ro*)
 *(.rel.data .rel.data.* .rel.gnu.linkonce.d.*)
 *(.rel.tdata .rel.tdata.* .rel.gnu.linkonce.td.*)
 *(.rel.tbss .rel.tbss.* .rel.gnu.linkonce.tb.*)
 *(.rel.ctors)
 *(.rel.dtors)
 *(.rel.got)
 *(.rel.sdata .rel.sdata.* .rel.gnu.linkonce.s.*)
 *(.rel.sbss .rel.sbss.* .rel.gnu.linkonce.sb.*)
 *(.rel.sdata2 .rel.sdata2.* .rel.gnu.linkonce.s2.*)
 *(.rel.sbss2 .rel.sbss2.* .rel.gnu.linkonce.sb2.*)
 *(.rel.bss .rel.bss.* .rel.gnu.linkonce.b.*)

.rela.dyn       0x0000000000010200        0x0
 *(.rela.init)
 *(.rela.text .rela.text.* .rela.gnu.linkonce.t.*)
 *(.rela.fini)
 *(.rela.rodata .rela.rodata.* .rela.gnu.linkonce.r.*)
 *(.rela.data .rela.data.* .rela.gnu.linkonce.d.*)
 *(.rela.tdata .rela.tdata.* .rela.gnu.linkonce.td.*)
 *(.rela.tbss .rela.tbss.* .rela.gnu.linkonce.tb.*)
 *(.rela.ctors)
 *(.rela.dtors)
 *(.rela.got)
 *(.rela.toc)
 .rela.toc      0x0000000000000000        0x0 linker stubs
 *(.rela.sdata .rela.sdata.* .rela.gnu.linkonce.s.*)
 *(.rela.sbss .rela.sbss.* .rela.gnu.linkonce.sb.*)
 *(.rela.sdata2 .rela.sdata2.* .rela.gnu.linkonce.s2.*)
 *(.rela.sbss2 .rela.sbss2.* .rela.gnu.linkonce.sb2.*)
 *(.rela.bss .rela.bss.* .rela.gnu.linkonce.b.*)
 .rela.iplt     0x0000000000000000        0x0 linker stubs
 .rela.sys_proc_prx_param
                0x0000000000000000        0x0 linker stubs
 .rela.opd      0x0000000000000000        0x0 linker stubs

.rel.plt
 *(.rel.plt)

.rela.plt
 *(.rela.plt)

.rela.tocbss
 *(.rela.tocbss)

.init           0x0000000000010200       0x2c
 *(.init)
 .init          0x0000000000010200        0xc c:/psdk3v2/ps3dev/ppu/bin/../lib/gcc/powerpc64-ps3-elf/4.5.2/../../../../powerpc64-ps3-elf/lib/lv2-crti.o
                0x0000000000010200                ._init
 .init          0x000000000001020c        0x8 c:/psdk3v2/ps3dev/ppu/bin/../lib/gcc/powerpc64-ps3-elf/4.5.2/crtbegin.o
 .init          0x0000000000010214        0x8 c:/psdk3v2/ps3dev/ppu/bin/../lib/gcc/powerpc64-ps3-elf/4.5.2/crtend.o
 .init          0x000000000001021c       0x10 c:/psdk3v2/ps3dev/ppu/bin/../lib/gcc/powerpc64-ps3-elf/4.5.2/../../../../powerpc64-ps3-elf/lib/lv2-crtn.o

.text           0x0000000000010230    0x14214
 *(.text .stub .text.* .gnu.linkonce.t.*)
 .text          0x0000000000010230        0x0 c:/psdk3v2/ps3dev/ppu/bin/../lib/gcc/powerpc64-ps3-elf/4.5.2/../../../../powerpc64-ps3-elf/lib/lv2-crti.o
 .text          0x0000000000010230        0x0 c:/psdk3v2/ps3dev/ppu/bin/../lib/gcc/powerpc64-ps3-elf/4.5.2/crtbegin.o
 .text.__do_global_dtors_aux
                0x0000000000010230       0xc8 c:/psdk3v2/ps3dev/ppu/bin/../lib/gcc/powerpc64-ps3-elf/4.5.2/crtbegin.o
 .text.frame_dummy
                0x00000000000102f8       0x70 c:/psdk3v2/ps3dev/ppu/bin/../lib/gcc/powerpc64-ps3-elf/4.5.2/crtbegin.o
 .text          0x0000000000010368       0x58 c:/psdk3v2/ps3dev/ppu/bin/../lib/gcc/powerpc64-ps3-elf/4.5.2/../../../../powerpc64-ps3-elf/lib/lv2-crt0.o
                0x0000000000010368                ._start
 .text.__syscalls_init
                0x00000000000103c0      0x15c c:/psdk3v2/ps3dev/ppu/bin/../lib/gcc/powerpc64-ps3-elf/4.5.2/../../../../powerpc64-ps3-elf/lib/lv2-crt0.o
 *fill*         0x000000000001051c        0x4 60000000
 .text._initialize
                0x0000000000010520       0x40 c:/psdk3v2/ps3dev/ppu/bin/../lib/gcc/powerpc64-ps3-elf/4.5.2/../../../../powerpc64-ps3-elf/lib/lv2-crt0.o
                0x0000000000010520                ._initialize
 .text          0x0000000000010560        0x0 c:/psdk3v2/ps3dev/ppu/bin/../lib/gcc/powerpc64-ps3-elf/4.5.2/../../../../powerpc64-ps3-elf/lib/lv2-sprx.o
 .text          0x0000000000010560        0x0 loader.o
 .text.is_payload_loaded
                0x0000000000010560       0xe8 loader.o
                0x0000000000010560                .is_payload_loaded
 .text.main     0x0000000000010648      0x1c4 loader.o
                0x0000000000010648                .main
 .text          0x000000000001080c        0x0 syscall8.o
 *fill*         0x000000000001080c        0x4 60000000
 .text.sys8_disable
                0x0000000000010810       0x50 syscall8.o
                0x0000000000010810                .sys8_disable
 .text.sys8_enable
                0x0000000000010860       0x50 syscall8.o
                0x0000000000010860                .sys8_enable
 .text.sys8_memcpy
                0x00000000000108b0       0x54 syscall8.o
                0x00000000000108b0                .sys8_memcpy
 *fill*         0x0000000000010904        0x4 60000000
 .text.sys8_memcpyinstr
                0x0000000000010908       0x54 syscall8.o
                0x0000000000010908                .sys8_memcpyinstr
 *fill*         0x000000000001095c        0x4 60000000
 .text.sys8_pokeinstr
                0x0000000000010960       0x54 syscall8.o
                0x0000000000010960                .sys8_pokeinstr
 *fill*         0x00000000000109b4        0x4 60000000
 .text.sys8_memset
                0x00000000000109b8       0x54 syscall8.o
                0x00000000000109b8                .sys8_memset
 *fill*         0x0000000000010a0c        0x4 60000000
 .text.sys8_call
                0x0000000000010a10       0x54 syscall8.o
                0x0000000000010a10                .sys8_call
 *fill*         0x0000000000010a64        0x4 60000000
 .text.sys8_alloc
                0x0000000000010a68       0x50 syscall8.o
                0x0000000000010a68                .sys8_alloc
 .text.sys8_free
                0x0000000000010ab8       0x50 syscall8.o
                0x0000000000010ab8                .sys8_free
 .text.sys8_panic
                0x0000000000010b08       0x48 syscall8.o
                0x0000000000010b08                .sys8_panic
 .text.sys8_perm_mode
                0x0000000000010b50       0x50 syscall8.o
                0x0000000000010b50                .sys8_perm_mode
 .text.sys8_sys_configure
                0x0000000000010ba0       0x50 syscall8.o
                0x0000000000010ba0                .sys8_sys_configure
 .text.sys8_lv1_syscall
                0x0000000000010bf0       0x54 syscall8.o
                0x0000000000010bf0                .sys8_lv1_syscall
 *fill*         0x0000000000010c44        0x4 60000000
 .text.sys8_path_table
                0x0000000000010c48       0x4c syscall8.o
                0x0000000000010c48                .sys8_path_table
 .text          0x0000000000010c94        0x0 c:/PSDK3v2/psl1ght/ppu/lib\liblv2.a(process_wrapper.o)
 *fill*         0x0000000000010c94        0x4 60000000
 .text.sysProcessExitSpawn2
                0x0000000000010c98      0x1f0 c:/PSDK3v2/psl1ght/ppu/lib\liblv2.a(process_wrapper.o)
                0x0000000000010c98                .sysProcessExitSpawn2
 .text          0x0000000000010e88        0x0 c:/PSDK3v2/psl1ght/ppu/lib\liblv2.a(sprx.o)
 .text          0x0000000000010e88        0x0 c:/psdk3v2/ps3dev/ppu/bin/../lib/gcc/powerpc64-ps3-elf/4.5.2/../../../../powerpc64-ps3-elf/lib\libsysbase.a(syscalls.o)
 .text          0x0000000000010e88        0x0 c:/psdk3v2/ps3dev/ppu/bin/../lib/gcc/powerpc64-ps3-elf/4.5.2/../../../../powerpc64-ps3-elf/lib\libc.a(lib_a-exit.o)
 .text.exit     0x0000000000010e88       0x68 c:/psdk3v2/ps3dev/ppu/bin/../lib/gcc/powerpc64-ps3-elf/4.5.2/../../../../powerpc64-ps3-elf/lib\libc.a(lib_a-exit.o)
                0x0000000000010e88                .exit
 .text          0x0000000000010ef0        0x0 c:/psdk3v2/ps3dev/ppu/bin/../lib/gcc/powerpc64-ps3-elf/4.5.2/../../../../powerpc64-ps3-elf/lib\libc.a(lib_a-impure.o)
 .text          0x0000000000010ef0        0x0 c:/psdk3v2/ps3dev/ppu/bin/../lib/gcc/powerpc64-ps3-elf/4.5.2/../../../../powerpc64-ps3-elf/lib\libc.a(lib_a-malloc.o)
 .text.malloc   0x0000000000010ef0       0x48 c:/psdk3v2/ps3dev/ppu/bin/../lib/gcc/powerpc64-ps3-elf/4.5.2/../../../../powerpc64-ps3-elf/lib\libc.a(lib_a-malloc.o)
                0x0000000000010ef0                .malloc
 .text.free     0x0000000000010f38       0x48 c:/psdk3v2/ps3dev/ppu/bin/../lib/gcc/powerpc64-ps3-elf/4.5.2/../../../../powerpc64-ps3-elf/lib\libc.a(lib_a-malloc.o)
                0x0000000000010f38                .free
 .text          0x0000000000010f80        0x0 c:/psdk3v2/ps3dev/ppu/bin/../lib/gcc/powerpc64-ps3-elf/4.5.2/../../../../powerpc64-ps3-elf/lib\libc.a(lib_a-mallocr.o)
 .text._malloc_r
                0x0000000000010f80      0x944 c:/psdk3v2/ps3dev/ppu/bin/../lib/gcc/powerpc64-ps3-elf/4.5.2/../../../../powerpc64-ps3-elf/lib\libc.a(lib_a-mallocr.o)
                0x0000000000010f80                ._malloc_r
 .text          0x00000000000118c4        0x0 c:/psdk3v2/ps3dev/ppu/bin/../lib/gcc/powerpc64-ps3-elf/4.5.2/../../../../powerpc64-ps3-elf/lib\libc.a(lib_a-mlock.o)
 *fill*         0x00000000000118c4        0x4 60000000
 .text.__malloc_lock
                0x00000000000118c8       0x34 c:/psdk3v2/ps3dev/ppu/bin/../lib/gcc/powerpc64-ps3-elf/4.5.2/../../../../powerpc64-ps3-elf/lib\libc.a(lib_a-mlock.o)
                0x00000000000118c8                .__malloc_lock
 *fill*         0x00000000000118fc        0x4 60000000
 .text.__malloc_unlock
                0x0000000000011900       0x34 c:/psdk3v2/ps3dev/ppu/bin/../lib/gcc/powerpc64-ps3-elf/4.5.2/../../../../powerpc64-ps3-elf/lib\libc.a(lib_a-mlock.o)
                0x0000000000011900                .__malloc_unlock
 .text          0x0000000000011934        0x0 c:/psdk3v2/ps3dev/ppu/bin/../lib/gcc/powerpc64-ps3-elf/4.5.2/../../../../powerpc64-ps3-elf/lib\libc.a(lib_a-strcpy.o)
 *fill*         0x0000000000011934        0x4 60000000
 .text.strcpy   0x0000000000011938       0xa8 c:/psdk3v2/ps3dev/ppu/bin/../lib/gcc/powerpc64-ps3-elf/4.5.2/../../../../powerpc64-ps3-elf/lib\libc.a(lib_a-strcpy.o)
                0x0000000000011938                .strcpy
 .text          0x00000000000119e0        0x0 c:/psdk3v2/ps3dev/ppu/bin/../lib/gcc/powerpc64-ps3-elf/4.5.2/../../../../powerpc64-ps3-elf/lib\libc.a(lib_a-strlen.o)
 .text.strlen   0x00000000000119e0       0xe4 c:/psdk3v2/ps3dev/ppu/bin/../lib/gcc/powerpc64-ps3-elf/4.5.2/../../../../powerpc64-ps3-elf/lib\libc.a(lib_a-strlen.o)
                0x00000000000119e0                .strlen
 .text          0x0000000000011ac4        0x0 c:/psdk3v2/ps3dev/ppu/bin/../lib/gcc/powerpc64-ps3-elf/4.5.2/../../../../powerpc64-ps3-elf/lib\libc.a(lib_a-strncmp.o)
 *fill*         0x0000000000011ac4        0x4 60000000
 .text.strncmp  0x0000000000011ac8      0x184 c:/psdk3v2/ps3dev/ppu/bin/../lib/gcc/powerpc64-ps3-elf/4.5.2/../../../../powerpc64-ps3-elf/lib\libc.a(lib_a-strncmp.o)
                0x0000000000011ac8                .strncmp
 .text          0x0000000000011c4c        0x0 c:/psdk3v2/ps3dev/ppu/bin/../lib/gcc/powerpc64-ps3-elf/4.5.2/../../../../powerpc64-ps3-elf/lib\libc.a(lib_a-__call_atexit.o)
 *fill*         0x0000000000011c4c        0x4 60000000
 .text.__call_exitprocs
                0x0000000000011c50      0x250 c:/psdk3v2/ps3dev/ppu/bin/../lib/gcc/powerpc64-ps3-elf/4.5.2/../../../../powerpc64-ps3-elf/lib\libc.a(lib_a-__call_atexit.o)
                0x0000000000011c50                .__call_exitprocs
 .text          0x0000000000011ea0        0x0 c:/psdk3v2/ps3dev/ppu/bin/../lib/gcc/powerpc64-ps3-elf/4.5.2/../../../../powerpc64-ps3-elf/lib\libc.a(lib_a-freer.o)
 .text._malloc_trim_r
                0x0000000000011ea0      0x15c c:/psdk3v2/ps3dev/ppu/bin/../lib/gcc/powerpc64-ps3-elf/4.5.2/../../../../powerpc64-ps3-elf/lib\libc.a(lib_a-freer.o)
                0x0000000000011ea0                ._malloc_trim_r
 *fill*         0x0000000000011ffc        0x4 60000000
 .text._free_r  0x0000000000012000      0x310 c:/psdk3v2/ps3dev/ppu/bin/../lib/gcc/powerpc64-ps3-elf/4.5.2/../../../../powerpc64-ps3-elf/lib\libc.a(lib_a-freer.o)
                0x0000000000012000                ._free_r
 .text          0x0000000000012310        0x0 c:/psdk3v2/ps3dev/ppu/bin/../lib/gcc/powerpc64-ps3-elf/4.5.2/../../../../powerpc64-ps3-elf/lib\libc.a(lib_a-getreent.o)
 .text.__getreent
                0x0000000000012310      0x1f0 c:/psdk3v2/ps3dev/ppu/bin/../lib/gcc/powerpc64-ps3-elf/4.5.2/../../../../powerpc64-ps3-elf/lib\libc.a(lib_a-getreent.o)
                0x0000000000012310                .__getreent
 .text          0x0000000000012500        0x0 c:/psdk3v2/ps3dev/ppu/bin/../lib/gcc/powerpc64-ps3-elf/4.5.2/../../../../powerpc64-ps3-elf/lib\libc.a(lib_a-lock_recursive.o)
 .text.__libc_lock_init_recursive
                0x0000000000012500       0x34 c:/psdk3v2/ps3dev/ppu/bin/../lib/gcc/powerpc64-ps3-elf/4.5.2/../../../../powerpc64-ps3-elf/lib\libc.a(lib_a-lock_recursive.o)
                0x0000000000012500                .__libc_lock_init_recursive
 *fill*         0x0000000000012534        0x4 60000000
 .text.__libc_lock_close_recursive
                0x0000000000012538       0x30 c:/psdk3v2/ps3dev/ppu/bin/../lib/gcc/powerpc64-ps3-elf/4.5.2/../../../../powerpc64-ps3-elf/lib\libc.a(lib_a-lock_recursive.o)
                0x0000000000012538                .__libc_lock_close_recursive
 .text.__libc_lock_acquire_recursive
                0x0000000000012568       0x58 c:/psdk3v2/ps3dev/ppu/bin/../lib/gcc/powerpc64-ps3-elf/4.5.2/../../../../powerpc64-ps3-elf/lib\libc.a(lib_a-lock_recursive.o)
                0x0000000000012568                .__libc_lock_acquire_recursive
 .text.__libc_lock_try_acquire_recursive
                0x00000000000125c0       0x54 c:/psdk3v2/ps3dev/ppu/bin/../lib/gcc/powerpc64-ps3-elf/4.5.2/../../../../powerpc64-ps3-elf/lib\libc.a(lib_a-lock_recursive.o)
                0x00000000000125c0                .__libc_lock_try_acquire_recursive
 *fill*         0x0000000000012614        0x4 60000000
 .text.__libc_lock_release_recursive
                0x0000000000012618       0x54 c:/psdk3v2/ps3dev/ppu/bin/../lib/gcc/powerpc64-ps3-elf/4.5.2/../../../../powerpc64-ps3-elf/lib\libc.a(lib_a-lock_recursive.o)
                0x0000000000012618                .__libc_lock_release_recursive
 .text          0x000000000001266c        0x0 c:/psdk3v2/ps3dev/ppu/bin/../lib/gcc/powerpc64-ps3-elf/4.5.2/../../../../powerpc64-ps3-elf/lib\libc.a(lib_a-memset.o)
 *fill*         0x000000000001266c        0x4 60000000
 .text.memset   0x0000000000012670      0x130 c:/psdk3v2/ps3dev/ppu/bin/../lib/gcc/powerpc64-ps3-elf/4.5.2/../../../../powerpc64-ps3-elf/lib\libc.a(lib_a-memset.o)
                0x0000000000012670                .memset
 .text          0x00000000000127a0        0x0 c:/psdk3v2/ps3dev/ppu/bin/../lib/gcc/powerpc64-ps3-elf/4.5.2/../../../../powerpc64-ps3-elf/lib\libc.a(lib_a-__atexit.o)
 .text.__register_exitproc
                0x00000000000127a0      0x188 c:/psdk3v2/ps3dev/ppu/bin/../lib/gcc/powerpc64-ps3-elf/4.5.2/../../../../powerpc64-ps3-elf/lib\libc.a(lib_a-__atexit.o)
                0x00000000000127a0                .__register_exitproc
 .text          0x0000000000012928        0x0 c:/psdk3v2/ps3dev/ppu/bin/../lib/gcc/powerpc64-ps3-elf/4.5.2/../../../../powerpc64-ps3-elf/lib\libc.a(lib_a-lock_internal.o)
 .text.init_metalock
                0x0000000000012928       0x48 c:/psdk3v2/ps3dev/ppu/bin/../lib/gcc/powerpc64-ps3-elf/4.5.2/../../../../powerpc64-ps3-elf/lib\libc.a(lib_a-lock_internal.o)
 .text.__libc_auto_lock_allocate
                0x0000000000012970       0x9c c:/psdk3v2/ps3dev/ppu/bin/../lib/gcc/powerpc64-ps3-elf/4.5.2/../../../../powerpc64-ps3-elf/lib\libc.a(lib_a-lock_internal.o)
                0x0000000000012970                .__libc_auto_lock_allocate
 .text          0x0000000000012a0c        0x0 c:/psdk3v2/ps3dev/ppu/bin/../lib/gcc/powerpc64-ps3-elf/4.5.2/../../../../powerpc64-ps3-elf/lib\libc.a(lib_a-abort.o)
 *fill*         0x0000000000012a0c        0x4 60000000
 .text.abort    0x0000000000012a10       0x30 c:/psdk3v2/ps3dev/ppu/bin/../lib/gcc/powerpc64-ps3-elf/4.5.2/../../../../powerpc64-ps3-elf/lib\libc.a(lib_a-abort.o)
                0x0000000000012a10                .abort
 .text          0x0000000000012a40        0x0 c:/psdk3v2/ps3dev/ppu/bin/../lib/gcc/powerpc64-ps3-elf/4.5.2/../../../../powerpc64-ps3-elf/lib\libc.a(lib_a-signal.o)
 .text._init_signal_r
                0x0000000000012a40       0x84 c:/psdk3v2/ps3dev/ppu/bin/../lib/gcc/powerpc64-ps3-elf/4.5.2/../../../../powerpc64-ps3-elf/lib\libc.a(lib_a-signal.o)
                0x0000000000012a40                ._init_signal_r
 *fill*         0x0000000000012ac4        0x4 60000000
 .text._signal_r
                0x0000000000012ac8       0x9c c:/psdk3v2/ps3dev/ppu/bin/../lib/gcc/powerpc64-ps3-elf/4.5.2/../../../../powerpc64-ps3-elf/lib\libc.a(lib_a-signal.o)
                0x0000000000012ac8                ._signal_r
 *fill*         0x0000000000012b64        0x4 60000000
 .text._raise_r
                0x0000000000012b68      0x114 c:/psdk3v2/ps3dev/ppu/bin/../lib/gcc/powerpc64-ps3-elf/4.5.2/../../../../powerpc64-ps3-elf/lib\libc.a(lib_a-signal.o)
                0x0000000000012b68                ._raise_r
 *fill*         0x0000000000012c7c        0x4 60000000
 .text.__sigtramp_r
                0x0000000000012c80       0xd0 c:/psdk3v2/ps3dev/ppu/bin/../lib/gcc/powerpc64-ps3-elf/4.5.2/../../../../powerpc64-ps3-elf/lib\libc.a(lib_a-signal.o)
                0x0000000000012c80                .__sigtramp_r
 .text.raise    0x0000000000012d50       0x40 c:/psdk3v2/ps3dev/ppu/bin/../lib/gcc/powerpc64-ps3-elf/4.5.2/../../../../powerpc64-ps3-elf/lib\libc.a(lib_a-signal.o)
                0x0000000000012d50                .raise
 .text.signal   0x0000000000012d90       0x50 c:/psdk3v2/ps3dev/ppu/bin/../lib/gcc/powerpc64-ps3-elf/4.5.2/../../../../powerpc64-ps3-elf/lib\libc.a(lib_a-signal.o)
                0x0000000000012d90                .signal
 .text._init_signal
                0x0000000000012de0       0x30 c:/psdk3v2/ps3dev/ppu/bin/../lib/gcc/powerpc64-ps3-elf/4.5.2/../../../../powerpc64-ps3-elf/lib\libc.a(lib_a-signal.o)
                0x0000000000012de0                ._init_signal
 .text.__sigtramp
                0x0000000000012e10       0x40 c:/psdk3v2/ps3dev/ppu/bin/../lib/gcc/powerpc64-ps3-elf/4.5.2/../../../../powerpc64-ps3-elf/lib\libc.a(lib_a-signal.o)
                0x0000000000012e10                .__sigtramp
 .text          0x0000000000012e50        0x0 c:/PSDK3v2/psl1ght/ppu/lib\librt.a(sbrk.o)
 .text.sbrk_init
                0x0000000000012e50       0xc4 c:/PSDK3v2/psl1ght/ppu/lib\librt.a(sbrk.o)
 *fill*         0x0000000000012f14        0x4 60000000
 .text.sbrk_deinit
                0x0000000000012f18       0xbc c:/PSDK3v2/psl1ght/ppu/lib\librt.a(sbrk.o)
 *fill*         0x0000000000012fd4        0x4 60000000
 .text.__librt_sbrk_r
                0x0000000000012fd8      0x324 c:/PSDK3v2/psl1ght/ppu/lib\librt.a(sbrk.o)
                0x0000000000012fd8                .__librt_sbrk_r
 .text          0x00000000000132fc        0x0 c:/PSDK3v2/psl1ght/ppu/lib\librt.a(exit.o)
 *fill*         0x00000000000132fc        0x4 60000000
 .text.__librt_exit
                0x0000000000013300       0x30 c:/PSDK3v2/psl1ght/ppu/lib\librt.a(exit.o)
                0x0000000000013300                .__librt_exit
 .text          0x0000000000013330        0x0 c:/PSDK3v2/psl1ght/ppu/lib\librt.a(close.o)
 .text.__librt_close_r
                0x0000000000013330       0x8c c:/PSDK3v2/psl1ght/ppu/lib\librt.a(close.o)
                0x0000000000013330                .__librt_close_r
 .text          0x00000000000133bc        0x0 c:/PSDK3v2/psl1ght/ppu/lib\librt.a(lseek.o)
 *fill*         0x00000000000133bc        0x4 60000000
 .text.__librt_lseek_r
                0x00000000000133c0       0x8c c:/PSDK3v2/psl1ght/ppu/lib\librt.a(lseek.o)
                0x00000000000133c0                .__librt_lseek_r
 *fill*         0x000000000001344c        0x4 60000000
 .text.__librt_lseek64_r
                0x0000000000013450       0x8c c:/PSDK3v2/psl1ght/ppu/lib\librt.a(lseek.o)
                0x0000000000013450                .__librt_lseek64_r
 .text          0x00000000000134dc        0x0 c:/PSDK3v2/psl1ght/ppu/lib\librt.a(read.o)
 *fill*         0x00000000000134dc        0x4 60000000
 .text.__librt_read_r
                0x00000000000134e0      0x11c c:/PSDK3v2/psl1ght/ppu/lib\librt.a(read.o)
                0x00000000000134e0                .__librt_read_r
 .text          0x00000000000135fc        0x0 c:/PSDK3v2/psl1ght/ppu/lib\librt.a(open.o)
 *fill*         0x00000000000135fc        0x4 60000000
 .text.__librt_open_r
                0x0000000000013600      0x180 c:/PSDK3v2/psl1ght/ppu/lib\librt.a(open.o)
                0x0000000000013600                .__librt_open_r
 .text          0x0000000000013780        0x0 c:/PSDK3v2/psl1ght/ppu/lib\librt.a(sleep.o)
 .text.__librt_usleep_r
                0x0000000000013780       0x50 c:/PSDK3v2/psl1ght/ppu/lib\librt.a(sleep.o)
                0x0000000000013780                .__librt_usleep_r
 .text.__librt_sleep_r
                0x00000000000137d0       0x8c c:/PSDK3v2/psl1ght/ppu/lib\librt.a(sleep.o)
                0x00000000000137d0                .__librt_sleep_r
 .text          0x000000000001385c        0x0 c:/PSDK3v2/psl1ght/ppu/lib\librt.a(write.o)
 *fill*         0x000000000001385c        0x4 60000000
 .text.__librt_write_r
                0x0000000000013860      0x11c c:/PSDK3v2/psl1ght/ppu/lib\librt.a(write.o)
                0x0000000000013860                .__librt_write_r
 .text          0x000000000001397c        0x0 c:/PSDK3v2/psl1ght/ppu/lib\librt.a(fstat.o)
 *fill*         0x000000000001397c        0x4 60000000
 .text.__librt_fstat_r
                0x0000000000013980       0xd0 c:/PSDK3v2/psl1ght/ppu/lib\librt.a(fstat.o)
                0x0000000000013980                .__librt_fstat_r
 .text.__librt_fstat64_r
                0x0000000000013a50       0xd0 c:/PSDK3v2/psl1ght/ppu/lib\librt.a(fstat.o)
                0x0000000000013a50                .__librt_fstat64_r
 .text.__librt_stat_r
                0x0000000000013b20       0xd0 c:/PSDK3v2/psl1ght/ppu/lib\librt.a(fstat.o)
                0x0000000000013b20                .__librt_stat_r
 .text.__librt_stat64_r
                0x0000000000013bf0       0xd0 c:/PSDK3v2/psl1ght/ppu/lib\librt.a(fstat.o)
                0x0000000000013bf0                .__librt_stat64_r
 .text          0x0000000000013cc0        0x0 c:/PSDK3v2/psl1ght/ppu/lib\librt.a(socket.o)
 .text.accept   0x0000000000013cc0       0xa0 c:/PSDK3v2/psl1ght/ppu/lib\librt.a(socket.o)
                0x0000000000013cc0                .accept
 .text.bind     0x0000000000013d60       0x48 c:/PSDK3v2/psl1ght/ppu/lib\librt.a(socket.o)
                0x0000000000013d60                .bind
 .text.connect  0x0000000000013da8       0x48 c:/PSDK3v2/psl1ght/ppu/lib\librt.a(socket.o)
                0x0000000000013da8                .connect
 .text.listen   0x0000000000013df0       0x48 c:/PSDK3v2/psl1ght/ppu/lib\librt.a(socket.o)
                0x0000000000013df0                .listen
 .text.socket   0x0000000000013e38       0x54 c:/PSDK3v2/psl1ght/ppu/lib\librt.a(socket.o)
                0x0000000000013e38                .socket
 *fill*         0x0000000000013e8c        0x4 60000000
 .text.send     0x0000000000013e90       0x50 c:/PSDK3v2/psl1ght/ppu/lib\librt.a(socket.o)
                0x0000000000013e90                .send
 .text.sendto   0x0000000000013ee0       0x48 c:/PSDK3v2/psl1ght/ppu/lib\librt.a(socket.o)
                0x0000000000013ee0                .sendto
 .text.recv     0x0000000000013f28       0x50 c:/PSDK3v2/psl1ght/ppu/lib\librt.a(socket.o)
                0x0000000000013f28                .recv
 .text.recvfrom
                0x0000000000013f78       0x98 c:/PSDK3v2/psl1ght/ppu/lib\librt.a(socket.o)
                0x0000000000013f78                .recvfrom
 .text.shutdown
                0x0000000000014010       0x48 c:/PSDK3v2/psl1ght/ppu/lib\librt.a(socket.o)
                0x0000000000014010                .shutdown
 .text.inet_aton
                0x0000000000014058       0xb8 c:/PSDK3v2/psl1ght/ppu/lib\librt.a(socket.o)
                0x0000000000014058                .inet_aton
 .text.inet_pton
                0x0000000000014110       0x54 c:/PSDK3v2/psl1ght/ppu/lib\librt.a(socket.o)
                0x0000000000014110                .inet_pton
 *fill*         0x0000000000014164        0x4 60000000
 .text.select   0x0000000000014168       0x3c c:/PSDK3v2/psl1ght/ppu/lib\librt.a(socket.o)
                0x0000000000014168                .select
 *fill*         0x00000000000141a4        0x4 60000000
 .text.closesocket
                0x00000000000141a8       0x48 c:/PSDK3v2/psl1ght/ppu/lib\librt.a(socket.o)
                0x00000000000141a8                .closesocket
 .text          0x00000000000141f0        0x0 c:/PSDK3v2/psl1ght/ppu/lib\librt.a(lock.o)
 .text.__librt_sys_lwmutex_create_r
                0x00000000000141f0       0x38 c:/PSDK3v2/psl1ght/ppu/lib\librt.a(lock.o)
                0x00000000000141f0                .__librt_sys_lwmutex_create_r
 .text.__librt_sys_lwmutex_destroy_r
                0x0000000000014228       0x34 c:/PSDK3v2/psl1ght/ppu/lib\librt.a(lock.o)
                0x0000000000014228                .__librt_sys_lwmutex_destroy_r
 *fill*         0x000000000001425c        0x4 60000000
 .text.__librt_sys_lwmutex_lock_r
                0x0000000000014260       0x38 c:/PSDK3v2/psl1ght/ppu/lib\librt.a(lock.o)
                0x0000000000014260                .__librt_sys_lwmutex_lock_r
 .text.__librt_sys_lwmutex_trylock_r
                0x0000000000014298       0x34 c:/PSDK3v2/psl1ght/ppu/lib\librt.a(lock.o)
                0x0000000000014298                .__librt_sys_lwmutex_trylock_r
 *fill*         0x00000000000142cc        0x4 60000000
 .text.__librt_sys_lwmutex_unlock_r
                0x00000000000142d0       0x34 c:/PSDK3v2/psl1ght/ppu/lib\librt.a(lock.o)
                0x00000000000142d0                .__librt_sys_lwmutex_unlock_r
 .text          0x0000000000014304        0x0 c:/PSDK3v2/psl1ght/ppu/lib\librt.a(dirent.o)
 *fill*         0x0000000000014304        0x4 60000000
 .text.readdir_i
                0x0000000000014308      0x10c c:/PSDK3v2/psl1ght/ppu/lib\librt.a(dirent.o)
 *fill*         0x0000000000014414        0x4 60000000
 .text.__librt_opendir_r
                0x0000000000014418      0x144 c:/PSDK3v2/psl1ght/ppu/lib\librt.a(dirent.o)
                0x0000000000014418                .__librt_opendir_r
 *fill*         0x000000000001455c        0x4 60000000
 .text.__librt_readdir_r
                0x0000000000014560       0x80 c:/PSDK3v2/psl1ght/ppu/lib\librt.a(dirent.o)
                0x0000000000014560                .__librt_readdir_r
 .text.__librt_readdir_r_r
                0x00000000000145e0       0x54 c:/PSDK3v2/psl1ght/ppu/lib\librt.a(dirent.o)
                0x00000000000145e0                .__librt_readdir_r_r
 *fill*         0x0000000000014634        0x4 60000000
 .text.__librt_closedir_r
                0x0000000000014638       0x84 c:/PSDK3v2/psl1ght/ppu/lib\librt.a(dirent.o)
                0x0000000000014638                .__librt_closedir_r
 *fill*         0x00000000000146bc        0x4 60000000
 .text.__librt_telldir_r
                0x00000000000146c0       0x24 c:/PSDK3v2/psl1ght/ppu/lib\librt.a(dirent.o)
                0x00000000000146c0                .__librt_telldir_r
 *fill*         0x00000000000146e4        0x4 60000000
 .text.__librt_rewinddir_r
                0x00000000000146e8       0x18 c:/PSDK3v2/psl1ght/ppu/lib\librt.a(dirent.o)
                0x00000000000146e8                .__librt_rewinddir_r
 .text.__librt_seekdir_r
                0x0000000000014700       0x18 c:/PSDK3v2/psl1ght/ppu/lib\librt.a(dirent.o)
                0x0000000000014700                .__librt_seekdir_r
 .text          0x0000000000014718        0x0 c:/PSDK3v2/psl1ght/ppu/lib\librt.a(mkdir.o)
 .text.__librt_mkdir_r
                0x0000000000014718       0x60 c:/PSDK3v2/psl1ght/ppu/lib\librt.a(mkdir.o)
                0x0000000000014718                .__librt_mkdir_r
 .text          0x0000000000014778        0x0 c:/PSDK3v2/psl1ght/ppu/lib\librt.a(times.o)
 .text.__librt_times_r
                0x0000000000014778       0x1c c:/PSDK3v2/psl1ght/ppu/lib\librt.a(times.o)
                0x0000000000014778                .__librt_times_r
 .text          0x0000000000014794        0x0 c:/PSDK3v2/psl1ght/ppu/lib\librt.a(umask.o)
 *fill*         0x0000000000014794        0x4 60000000
 .text.__librt_umask_r
                0x0000000000014798       0x20 c:/PSDK3v2/psl1ght/ppu/lib\librt.a(umask.o)
                0x0000000000014798                .__librt_umask_r
 .text          0x00000000000147b8        0x0 c:/PSDK3v2/psl1ght/ppu/lib\librt.a(lv2errno.o)
 .text.lv2error
                0x00000000000147b8      0x3dc c:/PSDK3v2/psl1ght/ppu/lib\librt.a(lv2errno.o)
                0x00000000000147b8                .lv2error
 *fill*         0x0000000000014b94        0x4 60000000
 .text.lv2errno
                0x0000000000014b98       0x68 c:/PSDK3v2/psl1ght/ppu/lib\librt.a(lv2errno.o)
                0x0000000000014b98                .lv2errno
 .text.lv2errno_r
                0x0000000000014c00       0x58 c:/PSDK3v2/psl1ght/ppu/lib\librt.a(lv2errno.o)
                0x0000000000014c00                .lv2errno_r
 .text          0x0000000000014c58        0x0 c:/PSDK3v2/psl1ght/ppu/lib\librt.a(heap.o)
 .text.heapInit
                0x0000000000014c58       0xe8 c:/PSDK3v2/psl1ght/ppu/lib\librt.a(heap.o)
                0x0000000000014c58                .heapInit
 .text.heapAllocate
                0x0000000000014d40      0x174 c:/PSDK3v2/psl1ght/ppu/lib\librt.a(heap.o)
                0x0000000000014d40                .heapAllocate
 *fill*         0x0000000000014eb4        0x4 60000000
 .text.heapAllocateAligned
                0x0000000000014eb8      0x224 c:/PSDK3v2/psl1ght/ppu/lib\librt.a(heap.o)
                0x0000000000014eb8                .heapAllocateAligned
 *fill*         0x00000000000150dc        0x4 60000000
 .text.heapFree
                0x00000000000150e0      0x224 c:/PSDK3v2/psl1ght/ppu/lib\librt.a(heap.o)
                0x00000000000150e0                .heapFree
 .text          0x0000000000015304        0x0 c:/PSDK3v2/psl1ght/ppu/lib\librt.a(chmod.o)
 *fill*         0x0000000000015304        0x4 60000000
 .text.__librt_chmod_r
                0x0000000000015308       0x54 c:/PSDK3v2/psl1ght/ppu/lib\librt.a(chmod.o)
                0x0000000000015308                .__librt_chmod_r
 .text          0x000000000001535c        0x0 c:/PSDK3v2/psl1ght/ppu/lib\librt.a(rmdir.o)
 *fill*         0x000000000001535c        0x4 60000000
 .text.__librt_rmdir_r
                0x0000000000015360       0x50 c:/PSDK3v2/psl1ght/ppu/lib\librt.a(rmdir.o)
                0x0000000000015360                .__librt_rmdir_r
 .text          0x00000000000153b0        0x0 c:/PSDK3v2/psl1ght/ppu/lib\librt.a(isatty.o)
 .text.__librt_isatty_r
                0x00000000000153b0       0x2c c:/PSDK3v2/psl1ght/ppu/lib\librt.a(isatty.o)
                0x00000000000153b0                .__librt_isatty_r
 .text          0x00000000000153dc        0x0 c:/PSDK3v2/psl1ght/ppu/lib\librt.a(gettod.o)
 *fill*         0x00000000000153dc        0x4 60000000
 .text.__librt_gettod_r
                0x00000000000153e0       0xb8 c:/PSDK3v2/psl1ght/ppu/lib\librt.a(gettod.o)
                0x00000000000153e0                .__librt_gettod_r
 .text          0x0000000000015498        0x0 c:/PSDK3v2/psl1ght/ppu/lib\librt.a(settod.o)
 .text.__librt_settod_r
                0x0000000000015498       0x58 c:/PSDK3v2/psl1ght/ppu/lib\librt.a(settod.o)
                0x0000000000015498                .__librt_settod_r
 .text          0x00000000000154f0        0x0 c:/psdk3v2/ps3dev/ppu/bin/../lib/gcc/powerpc64-ps3-elf/4.5.2/../../../../powerpc64-ps3-elf/lib\libsysbase.a(sbrk.o)
 .text._sbrk_r  0x00000000000154f0       0x78 c:/psdk3v2/ps3dev/ppu/bin/../lib/gcc/powerpc64-ps3-elf/4.5.2/../../../../powerpc64-ps3-elf/lib\libsysbase.a(sbrk.o)
                0x00000000000154f0                ._sbrk_r
 .text          0x0000000000015568        0x0 c:/psdk3v2/ps3dev/ppu/bin/../lib/gcc/powerpc64-ps3-elf/4.5.2/../../../../powerpc64-ps3-elf/lib\libsysbase.a(_exit.o)
 .text._exit    0x0000000000015568       0x48 c:/psdk3v2/ps3dev/ppu/bin/../lib/gcc/powerpc64-ps3-elf/4.5.2/../../../../powerpc64-ps3-elf/lib\libsysbase.a(_exit.o)
                0x0000000000015568                ._exit
 .text          0x00000000000155b0        0x0 c:/psdk3v2/ps3dev/ppu/bin/../lib/gcc/powerpc64-ps3-elf/4.5.2/../../../../powerpc64-ps3-elf/lib\libsysbase.a(lock.o)
 .text.sys_lwmutex_create
                0x00000000000155b0       0x94 c:/psdk3v2/ps3dev/ppu/bin/../lib/gcc/powerpc64-ps3-elf/4.5.2/../../../../powerpc64-ps3-elf/lib\libsysbase.a(lock.o)
                0x00000000000155b0                .sys_lwmutex_create
 *fill*         0x0000000000015644        0x4 60000000
 .text.sys_lwmutex_destroy
                0x0000000000015648       0x84 c:/psdk3v2/ps3dev/ppu/bin/../lib/gcc/powerpc64-ps3-elf/4.5.2/../../../../powerpc64-ps3-elf/lib\libsysbase.a(lock.o)
                0x0000000000015648                .sys_lwmutex_destroy
 *fill*         0x00000000000156cc        0x4 60000000
 .text.sys_lwmutex_lock
                0x00000000000156d0       0x94 c:/psdk3v2/ps3dev/ppu/bin/../lib/gcc/powerpc64-ps3-elf/4.5.2/../../../../powerpc64-ps3-elf/lib\libsysbase.a(lock.o)
                0x00000000000156d0                .sys_lwmutex_lock
 *fill*         0x0000000000015764        0x4 60000000
 .text.sys_lwmutex_trylock
                0x0000000000015768       0x84 c:/psdk3v2/ps3dev/ppu/bin/../lib/gcc/powerpc64-ps3-elf/4.5.2/../../../../powerpc64-ps3-elf/lib\libsysbase.a(lock.o)
                0x0000000000015768                .sys_lwmutex_trylock
 *fill*         0x00000000000157ec        0x4 60000000
 .text.sys_lwmutex_unlock
                0x00000000000157f0       0x84 c:/psdk3v2/ps3dev/ppu/bin/../lib/gcc/powerpc64-ps3-elf/4.5.2/../../../../powerpc64-ps3-elf/lib\libsysbase.a(lock.o)
                0x00000000000157f0                .sys_lwmutex_unlock
 .text          0x0000000000015874        0x0 c:/psdk3v2/ps3dev/ppu/bin/../lib/gcc/powerpc64-ps3-elf/4.5.2/../../../../powerpc64-ps3-elf/lib\libsysbase.a(getpid.o)
 *fill*         0x0000000000015874        0x4 60000000
 .text._getpid_r
                0x0000000000015878       0x6c c:/psdk3v2/ps3dev/ppu/bin/../lib/gcc/powerpc64-ps3-elf/4.5.2/../../../../powerpc64-ps3-elf/lib\libsysbase.a(getpid.o)
                0x0000000000015878                ._getpid_r
 .text          0x00000000000158e4        0x0 c:/psdk3v2/ps3dev/ppu/bin/../lib/gcc/powerpc64-ps3-elf/4.5.2/../../../../powerpc64-ps3-elf/lib\libsysbase.a(kill.o)
 *fill*         0x00000000000158e4        0x4 60000000
 .text._kill_r  0x00000000000158e8       0x1c c:/psdk3v2/ps3dev/ppu/bin/../lib/gcc/powerpc64-ps3-elf/4.5.2/../../../../powerpc64-ps3-elf/lib\libsysbase.a(kill.o)
                0x00000000000158e8                ._kill_r
 .text          0x0000000000015904        0x0 c:/psdk3v2/ps3dev/ppu/bin/../lib/gcc/powerpc64-ps3-elf/4.5.2/../../../../powerpc64-ps3-elf/lib\libc.a(lib_a-errno.o)
 *fill*         0x0000000000015904        0x4 60000000
 .text.__errno  0x0000000000015908       0x30 c:/psdk3v2/ps3dev/ppu/bin/../lib/gcc/powerpc64-ps3-elf/4.5.2/../../../../powerpc64-ps3-elf/lib\libc.a(lib_a-errno.o)
                0x0000000000015908                .__errno
 .text          0x0000000000015938        0x0 c:/psdk3v2/ps3dev/ppu/bin/../lib/gcc/powerpc64-ps3-elf/4.5.2/../../../../powerpc64-ps3-elf/lib\libc.a(lib_a-sscanf.o)
 .text.sscanf   0x0000000000015938       0xa8 c:/psdk3v2/ps3dev/ppu/bin/../lib/gcc/powerpc64-ps3-elf/4.5.2/../../../../powerpc64-ps3-elf/lib\libc.a(lib_a-sscanf.o)
                0x0000000000015938                .sscanf
 .text._sscanf_r
                0x00000000000159e0       0xa8 c:/psdk3v2/ps3dev/ppu/bin/../lib/gcc/powerpc64-ps3-elf/4.5.2/../../../../powerpc64-ps3-elf/lib\libc.a(lib_a-sscanf.o)
                0x00000000000159e0                ._sscanf_r
 .text          0x0000000000015a88        0x0 c:/psdk3v2/ps3dev/ppu/bin/../lib/gcc/powerpc64-ps3-elf/4.5.2/../../../../powerpc64-ps3-elf/lib\libc.a(lib_a-stdio.o)
 .text.__sread  0x0000000000015a88       0x80 c:/psdk3v2/ps3dev/ppu/bin/../lib/gcc/powerpc64-ps3-elf/4.5.2/../../../../powerpc64-ps3-elf/lib\libc.a(lib_a-stdio.o)
                0x0000000000015a88                .__sread
 .text.__seofread
                0x0000000000015b08       0x14 c:/psdk3v2/ps3dev/ppu/bin/../lib/gcc/powerpc64-ps3-elf/4.5.2/../../../../powerpc64-ps3-elf/lib\libc.a(lib_a-stdio.o)
                0x0000000000015b08                .__seofread
 *fill*         0x0000000000015b1c        0x4 60000000
 .text.__swrite
                0x0000000000015b20       0xbc c:/psdk3v2/ps3dev/ppu/bin/../lib/gcc/powerpc64-ps3-elf/4.5.2/../../../../powerpc64-ps3-elf/lib\libc.a(lib_a-stdio.o)
                0x0000000000015b20                .__swrite
 *fill*         0x0000000000015bdc        0x4 60000000
 .text.__sseek  0x0000000000015be0       0x88 c:/psdk3v2/ps3dev/ppu/bin/../lib/gcc/powerpc64-ps3-elf/4.5.2/../../../../powerpc64-ps3-elf/lib\libc.a(lib_a-stdio.o)
                0x0000000000015be0                .__sseek
 .text.__sclose
                0x0000000000015c68       0x3c c:/psdk3v2/ps3dev/ppu/bin/../lib/gcc/powerpc64-ps3-elf/4.5.2/../../../../powerpc64-ps3-elf/lib\libc.a(lib_a-stdio.o)
                0x0000000000015c68                .__sclose
 .text          0x0000000000015ca4        0x0 c:/psdk3v2/ps3dev/ppu/bin/../lib/gcc/powerpc64-ps3-elf/4.5.2/../../../../powerpc64-ps3-elf/lib\libc.a(lib_a-strncpy.o)
 *fill*         0x0000000000015ca4        0x4 60000000
 .text.strncpy  0x0000000000015ca8      0x100 c:/psdk3v2/ps3dev/ppu/bin/../lib/gcc/powerpc64-ps3-elf/4.5.2/../../../../powerpc64-ps3-elf/lib\libc.a(lib_a-strncpy.o)
                0x0000000000015ca8                .strncpy
 .text          0x0000000000015da8        0x0 c:/psdk3v2/ps3dev/ppu/bin/../lib/gcc/powerpc64-ps3-elf/4.5.2/../../../../powerpc64-ps3-elf/lib\libc.a(lib_a-svfscanf.o)
 .text.__ssvfscanf_r
                0x0000000000015da8     0x18d8 c:/psdk3v2/ps3dev/ppu/bin/../lib/gcc/powerpc64-ps3-elf/4.5.2/../../../../powerpc64-ps3-elf/lib\libc.a(lib_a-svfscanf.o)
                0x0000000000015da8                .__ssvfscanf_r
 .text          0x0000000000017680        0x0 c:/psdk3v2/ps3dev/ppu/bin/../lib/gcc/powerpc64-ps3-elf/4.5.2/../../../../powerpc64-ps3-elf/lib\libc.a(lib_a-ctype_.o)
 .text          0x0000000000017680        0x0 c:/psdk3v2/ps3dev/ppu/bin/../lib/gcc/powerpc64-ps3-elf/4.5.2/../../../../powerpc64-ps3-elf/lib\libc.a(lib_a-findfp.o)
 .text._cleanup_r
                0x0000000000017680       0x34 c:/psdk3v2/ps3dev/ppu/bin/../lib/gcc/powerpc64-ps3-elf/4.5.2/../../../../powerpc64-ps3-elf/lib\libc.a(lib_a-findfp.o)
                0x0000000000017680                ._cleanup_r
 *fill*         0x00000000000176b4        0x4 60000000
 .text.__fp_unlock
                0x00000000000176b8       0x48 c:/psdk3v2/ps3dev/ppu/bin/../lib/gcc/powerpc64-ps3-elf/4.5.2/../../../../powerpc64-ps3-elf/lib\libc.a(lib_a-findfp.o)
 .text.__fp_lock
                0x0000000000017700       0x48 c:/psdk3v2/ps3dev/ppu/bin/../lib/gcc/powerpc64-ps3-elf/4.5.2/../../../../powerpc64-ps3-elf/lib\libc.a(lib_a-findfp.o)
 .text.__sfmoreglue
                0x0000000000017748       0x94 c:/psdk3v2/ps3dev/ppu/bin/../lib/gcc/powerpc64-ps3-elf/4.5.2/../../../../powerpc64-ps3-elf/lib\libc.a(lib_a-findfp.o)
                0x0000000000017748                .__sfmoreglue
 *fill*         0x00000000000177dc        0x4 60000000
 .text._cleanup
                0x00000000000177e0       0x18 c:/psdk3v2/ps3dev/ppu/bin/../lib/gcc/powerpc64-ps3-elf/4.5.2/../../../../powerpc64-ps3-elf/lib\libc.a(lib_a-findfp.o)
                0x00000000000177e0                ._cleanup
 .text.__sfp_lock_acquire
                0x00000000000177f8       0x34 c:/psdk3v2/ps3dev/ppu/bin/../lib/gcc/powerpc64-ps3-elf/4.5.2/../../../../powerpc64-ps3-elf/lib\libc.a(lib_a-findfp.o)
                0x00000000000177f8                .__sfp_lock_acquire
 *fill*         0x000000000001782c        0x4 60000000
 .text.__sfp_lock_release
                0x0000000000017830       0x34 c:/psdk3v2/ps3dev/ppu/bin/../lib/gcc/powerpc64-ps3-elf/4.5.2/../../../../powerpc64-ps3-elf/lib\libc.a(lib_a-findfp.o)
                0x0000000000017830                .__sfp_lock_release
 *fill*         0x0000000000017864        0x4 60000000
 .text.__sinit_lock_acquire
                0x0000000000017868       0x34 c:/psdk3v2/ps3dev/ppu/bin/../lib/gcc/powerpc64-ps3-elf/4.5.2/../../../../powerpc64-ps3-elf/lib\libc.a(lib_a-findfp.o)
                0x0000000000017868                .__sinit_lock_acquire
 *fill*         0x000000000001789c        0x4 60000000
 .text.__sinit_lock_release
                0x00000000000178a0       0x34 c:/psdk3v2/ps3dev/ppu/bin/../lib/gcc/powerpc64-ps3-elf/4.5.2/../../../../powerpc64-ps3-elf/lib\libc.a(lib_a-findfp.o)
                0x00000000000178a0                .__sinit_lock_release
 *fill*         0x00000000000178d4        0x4 60000000
 .text.__sinit  0x00000000000178d8      0x1d8 c:/psdk3v2/ps3dev/ppu/bin/../lib/gcc/powerpc64-ps3-elf/4.5.2/../../../../powerpc64-ps3-elf/lib\libc.a(lib_a-findfp.o)
                0x00000000000178d8                .__sinit
 .text.__sfp    0x0000000000017ab0      0x190 c:/psdk3v2/ps3dev/ppu/bin/../lib/gcc/powerpc64-ps3-elf/4.5.2/../../../../powerpc64-ps3-elf/lib\libc.a(lib_a-findfp.o)
                0x0000000000017ab0                .__sfp
 .text.__fp_lock_all
                0x0000000000017c40       0x40 c:/psdk3v2/ps3dev/ppu/bin/../lib/gcc/powerpc64-ps3-elf/4.5.2/../../../../powerpc64-ps3-elf/lib\libc.a(lib_a-findfp.o)
                0x0000000000017c40                .__fp_lock_all
 .text.__fp_unlock_all
                0x0000000000017c80       0x3c c:/psdk3v2/ps3dev/ppu/bin/../lib/gcc/powerpc64-ps3-elf/4.5.2/../../../../powerpc64-ps3-elf/lib\libc.a(lib_a-findfp.o)
                0x0000000000017c80                .__fp_unlock_all
 .text          0x0000000000017cbc        0x0 c:/psdk3v2/ps3dev/ppu/bin/../lib/gcc/powerpc64-ps3-elf/4.5.2/../../../../powerpc64-ps3-elf/lib\libc.a(lib_a-fwalk.o)
 *fill*         0x0000000000017cbc        0x4 60000000
 .text._fwalk   0x0000000000017cc0       0xfc c:/psdk3v2/ps3dev/ppu/bin/../lib/gcc/powerpc64-ps3-elf/4.5.2/../../../../powerpc64-ps3-elf/lib\libc.a(lib_a-fwalk.o)
                0x0000000000017cc0                ._fwalk
 *fill*         0x0000000000017dbc        0x4 60000000
 .text._fwalk_reent
                0x0000000000017dc0      0x108 c:/psdk3v2/ps3dev/ppu/bin/../lib/gcc/powerpc64-ps3-elf/4.5.2/../../../../powerpc64-ps3-elf/lib\libc.a(lib_a-fwalk.o)
                0x0000000000017dc0                ._fwalk_reent
 .text          0x0000000000017ec8        0x0 c:/psdk3v2/ps3dev/ppu/bin/../lib/gcc/powerpc64-ps3-elf/4.5.2/../../../../powerpc64-ps3-elf/lib\libc.a(lib_a-iswspace.o)
 .text.iswspace
                0x0000000000017ec8       0x3c c:/psdk3v2/ps3dev/ppu/bin/../lib/gcc/powerpc64-ps3-elf/4.5.2/../../../../powerpc64-ps3-elf/lib\libc.a(lib_a-iswspace.o)
                0x0000000000017ec8                .iswspace
 .text          0x0000000000017f04        0x0 c:/psdk3v2/ps3dev/ppu/bin/../lib/gcc/powerpc64-ps3-elf/4.5.2/../../../../powerpc64-ps3-elf/lib\libc.a(lib_a-locale.o)
 *fill*         0x0000000000017f04        0x4 60000000
 .text._setlocale_r
                0x0000000000017f08       0xa8 c:/psdk3v2/ps3dev/ppu/bin/../lib/gcc/powerpc64-ps3-elf/4.5.2/../../../../powerpc64-ps3-elf/lib\libc.a(lib_a-locale.o)
                0x0000000000017f08                ._setlocale_r
 .text.__locale_charset
                0x0000000000017fb0       0x14 c:/psdk3v2/ps3dev/ppu/bin/../lib/gcc/powerpc64-ps3-elf/4.5.2/../../../../powerpc64-ps3-elf/lib\libc.a(lib_a-locale.o)
                0x0000000000017fb0                .__locale_charset
 *fill*         0x0000000000017fc4        0x4 60000000
 .text.__locale_mb_cur_max
                0x0000000000017fc8       0x1c c:/psdk3v2/ps3dev/ppu/bin/../lib/gcc/powerpc64-ps3-elf/4.5.2/../../../../powerpc64-ps3-elf/lib\libc.a(lib_a-locale.o)
                0x0000000000017fc8                .__locale_mb_cur_max
 *fill*         0x0000000000017fe4        0x4 60000000
 .text.__locale_msgcharset
                0x0000000000017fe8       0x14 c:/psdk3v2/ps3dev/ppu/bin/../lib/gcc/powerpc64-ps3-elf/4.5.2/../../../../powerpc64-ps3-elf/lib\libc.a(lib_a-locale.o)
                0x0000000000017fe8                .__locale_msgcharset
 *fill*         0x0000000000017ffc        0x4 60000000
 .text.__locale_cjk_lang
                0x0000000000018000       0x14 c:/psdk3v2/ps3dev/ppu/bin/../lib/gcc/powerpc64-ps3-elf/4.5.2/../../../../powerpc64-ps3-elf/lib\libc.a(lib_a-locale.o)
                0x0000000000018000                .__locale_cjk_lang
 *fill*         0x0000000000018014        0x4 60000000
 .text._localeconv_r
                0x0000000000018018       0x14 c:/psdk3v2/ps3dev/ppu/bin/../lib/gcc/powerpc64-ps3-elf/4.5.2/../../../../powerpc64-ps3-elf/lib\libc.a(lib_a-locale.o)
                0x0000000000018018                ._localeconv_r
 *fill*         0x000000000001802c        0x4 60000000
 .text.setlocale
                0x0000000000018030       0x50 c:/psdk3v2/ps3dev/ppu/bin/../lib/gcc/powerpc64-ps3-elf/4.5.2/../../../../powerpc64-ps3-elf/lib\libc.a(lib_a-locale.o)
                0x0000000000018030                .setlocale
 .text.localeconv
                0x0000000000018080       0x34 c:/psdk3v2/ps3dev/ppu/bin/../lib/gcc/powerpc64-ps3-elf/4.5.2/../../../../powerpc64-ps3-elf/lib\libc.a(lib_a-locale.o)
                0x0000000000018080                .localeconv
 .text          0x00000000000180b4        0x0 c:/psdk3v2/ps3dev/ppu/bin/../lib/gcc/powerpc64-ps3-elf/4.5.2/../../../../powerpc64-ps3-elf/lib\libc.a(lib_a-mbrtowc.o)
 *fill*         0x00000000000180b4        0x4 60000000
 .text._mbrtowc_r
                0x00000000000180b8      0x10c c:/psdk3v2/ps3dev/ppu/bin/../lib/gcc/powerpc64-ps3-elf/4.5.2/../../../../powerpc64-ps3-elf/lib\libc.a(lib_a-mbrtowc.o)
                0x00000000000180b8                ._mbrtowc_r
 *fill*         0x00000000000181c4        0x4 60000000
 .text.mbrtowc  0x00000000000181c8      0x170 c:/psdk3v2/ps3dev/ppu/bin/../lib/gcc/powerpc64-ps3-elf/4.5.2/../../../../powerpc64-ps3-elf/lib\libc.a(lib_a-mbrtowc.o)
                0x00000000000181c8                .mbrtowc
 .text          0x0000000000018338        0x0 c:/psdk3v2/ps3dev/ppu/bin/../lib/gcc/powerpc64-ps3-elf/4.5.2/../../../../powerpc64-ps3-elf/lib\libc.a(lib_a-mbtowc_r.o)
 .text.__ascii_mbtowc
                0x0000000000018338       0x58 c:/psdk3v2/ps3dev/ppu/bin/../lib/gcc/powerpc64-ps3-elf/4.5.2/../../../../powerpc64-ps3-elf/lib\libc.a(lib_a-mbtowc_r.o)
                0x0000000000018338                .__ascii_mbtowc
 .text._mbtowc_r
                0x0000000000018390       0x98 c:/psdk3v2/ps3dev/ppu/bin/../lib/gcc/powerpc64-ps3-elf/4.5.2/../../../../powerpc64-ps3-elf/lib\libc.a(lib_a-mbtowc_r.o)
                0x0000000000018390                ._mbtowc_r
 .text          0x0000000000018428        0x0 c:/psdk3v2/ps3dev/ppu/bin/../lib/gcc/powerpc64-ps3-elf/4.5.2/../../../../powerpc64-ps3-elf/lib\libc.a(lib_a-s_fpclassify.o)
 .text.__fpclassifyd
                0x0000000000018428       0xc4 c:/psdk3v2/ps3dev/ppu/bin/../lib/gcc/powerpc64-ps3-elf/4.5.2/../../../../powerpc64-ps3-elf/lib\libc.a(lib_a-s_fpclassify.o)
                0x0000000000018428                .__fpclassifyd
 .text          0x00000000000184ec        0x0 c:/psdk3v2/ps3dev/ppu/bin/../lib/gcc/powerpc64-ps3-elf/4.5.2/../../../../powerpc64-ps3-elf/lib\libc.a(lib_a-sccl.o)
 *fill*         0x00000000000184ec        0x4 60000000
 .text.__sccl   0x00000000000184f0      0x120 c:/psdk3v2/ps3dev/ppu/bin/../lib/gcc/powerpc64-ps3-elf/4.5.2/../../../../powerpc64-ps3-elf/lib\libc.a(lib_a-sccl.o)
                0x00000000000184f0                .__sccl
 .text          0x0000000000018610        0x0 c:/psdk3v2/ps3dev/ppu/bin/../lib/gcc/powerpc64-ps3-elf/4.5.2/../../../../powerpc64-ps3-elf/lib\libc.a(lib_a-sf_nan.o)
 .text.nanf     0x0000000000018610       0x18 c:/psdk3v2/ps3dev/ppu/bin/../lib/gcc/powerpc64-ps3-elf/4.5.2/../../../../powerpc64-ps3-elf/lib\libc.a(lib_a-sf_nan.o)
                0x0000000000018610                .nanf
 .text          0x0000000000018628        0x0 c:/psdk3v2/ps3dev/ppu/bin/../lib/gcc/powerpc64-ps3-elf/4.5.2/../../../../powerpc64-ps3-elf/lib\libc.a(lib_a-sprintf.o)
 .text._sprintf_r
                0x0000000000018628       0x84 c:/psdk3v2/ps3dev/ppu/bin/../lib/gcc/powerpc64-ps3-elf/4.5.2/../../../../powerpc64-ps3-elf/lib\libc.a(lib_a-sprintf.o)
                0x0000000000018628                ._sprintf_r
 *fill*         0x00000000000186ac        0x4 60000000
 .text.sprintf  0x00000000000186b0       0x9c c:/psdk3v2/ps3dev/ppu/bin/../lib/gcc/powerpc64-ps3-elf/4.5.2/../../../../powerpc64-ps3-elf/lib\libc.a(lib_a-sprintf.o)
                0x00000000000186b0                .sprintf
 .text          0x000000000001874c        0x0 c:/psdk3v2/ps3dev/ppu/bin/../lib/gcc/powerpc64-ps3-elf/4.5.2/../../../../powerpc64-ps3-elf/lib\libc.a(lib_a-strcmp.o)
 *fill*         0x000000000001874c        0x4 60000000
 .text.strcmp   0x0000000000018750       0xfc c:/psdk3v2/ps3dev/ppu/bin/../lib/gcc/powerpc64-ps3-elf/4.5.2/../../../../powerpc64-ps3-elf/lib\libc.a(lib_a-strcmp.o)
                0x0000000000018750                .strcmp
 .text          0x000000000001884c        0x0 c:/psdk3v2/ps3dev/ppu/bin/../lib/gcc/powerpc64-ps3-elf/4.5.2/../../../../powerpc64-ps3-elf/lib\libc.a(lib_a-strtod.o)
 *fill*         0x000000000001884c        0x4 60000000
 .text.match    0x0000000000018850       0x6c c:/psdk3v2/ps3dev/ppu/bin/../lib/gcc/powerpc64-ps3-elf/4.5.2/../../../../powerpc64-ps3-elf/lib\libc.a(lib_a-strtod.o)
 *fill*         0x00000000000188bc        0x4 60000000
 .text._strtod_r
                0x00000000000188c0     0x1578 c:/psdk3v2/ps3dev/ppu/bin/../lib/gcc/powerpc64-ps3-elf/4.5.2/../../../../powerpc64-ps3-elf/lib\libc.a(lib_a-strtod.o)
                0x00000000000188c0                ._strtod_r
 .text.strtod   0x0000000000019e38       0x50 c:/psdk3v2/ps3dev/ppu/bin/../lib/gcc/powerpc64-ps3-elf/4.5.2/../../../../powerpc64-ps3-elf/lib\libc.a(lib_a-strtod.o)
                0x0000000000019e38                .strtod
 .text.strtof   0x0000000000019e88       0x98 c:/psdk3v2/ps3dev/ppu/bin/../lib/gcc/powerpc64-ps3-elf/4.5.2/../../../../powerpc64-ps3-elf/lib\libc.a(lib_a-strtod.o)
                0x0000000000019e88                .strtof
 .text          0x0000000000019f20        0x0 c:/psdk3v2/ps3dev/ppu/bin/../lib/gcc/powerpc64-ps3-elf/4.5.2/../../../../powerpc64-ps3-elf/lib\libc.a(lib_a-strtol.o)
 .text._strtol_r
                0x0000000000019f20      0x24c c:/psdk3v2/ps3dev/ppu/bin/../lib/gcc/powerpc64-ps3-elf/4.5.2/../../../../powerpc64-ps3-elf/lib\libc.a(lib_a-strtol.o)
                0x0000000000019f20                ._strtol_r
 *fill*         0x000000000001a16c        0x4 60000000
 .text.strtol   0x000000000001a170       0x60 c:/psdk3v2/ps3dev/ppu/bin/../lib/gcc/powerpc64-ps3-elf/4.5.2/../../../../powerpc64-ps3-elf/lib\libc.a(lib_a-strtol.o)
                0x000000000001a170                .strtol
 .text          0x000000000001a1d0        0x0 c:/psdk3v2/ps3dev/ppu/bin/../lib/gcc/powerpc64-ps3-elf/4.5.2/../../../../powerpc64-ps3-elf/lib\libc.a(lib_a-strtoll_r.o)
 .text._strtoll_r
                0x000000000001a1d0      0x24c c:/psdk3v2/ps3dev/ppu/bin/../lib/gcc/powerpc64-ps3-elf/4.5.2/../../../../powerpc64-ps3-elf/lib\libc.a(lib_a-strtoll_r.o)
                0x000000000001a1d0                ._strtoll_r
 .text          0x000000000001a41c        0x0 c:/psdk3v2/ps3dev/ppu/bin/../lib/gcc/powerpc64-ps3-elf/4.5.2/../../../../powerpc64-ps3-elf/lib\libc.a(lib_a-strtoul.o)
 *fill*         0x000000000001a41c        0x4 60000000
 .text._strtoul_r
                0x000000000001a420      0x230 c:/psdk3v2/ps3dev/ppu/bin/../lib/gcc/powerpc64-ps3-elf/4.5.2/../../../../powerpc64-ps3-elf/lib\libc.a(lib_a-strtoul.o)
                0x000000000001a420                ._strtoul_r
 .text.strtoul  0x000000000001a650       0x60 c:/psdk3v2/ps3dev/ppu/bin/../lib/gcc/powerpc64-ps3-elf/4.5.2/../../../../powerpc64-ps3-elf/lib\libc.a(lib_a-strtoul.o)
                0x000000000001a650                .strtoul
 .text          0x000000000001a6b0        0x0 c:/psdk3v2/ps3dev/ppu/bin/../lib/gcc/powerpc64-ps3-elf/4.5.2/../../../../powerpc64-ps3-elf/lib\libc.a(lib_a-strtoull_r.o)
 .text._strtoull_r
                0x000000000001a6b0      0x230 c:/psdk3v2/ps3dev/ppu/bin/../lib/gcc/powerpc64-ps3-elf/4.5.2/../../../../powerpc64-ps3-elf/lib\libc.a(lib_a-strtoull_r.o)
                0x000000000001a6b0                ._strtoull_r
 .text          0x000000000001a8e0        0x0 c:/psdk3v2/ps3dev/ppu/bin/../lib/gcc/powerpc64-ps3-elf/4.5.2/../../../../powerpc64-ps3-elf/lib\libc.a(lib_a-svfiscanf.o)
 .text._sungetc_r
                0x000000000001a8e0      0x158 c:/psdk3v2/ps3dev/ppu/bin/../lib/gcc/powerpc64-ps3-elf/4.5.2/../../../../powerpc64-ps3-elf/lib\libc.a(lib_a-svfiscanf.o)
                0x000000000001a8e0                ._sungetc_r
 .text.__ssrefill_r
                0x000000000001aa38       0xa0 c:/psdk3v2/ps3dev/ppu/bin/../lib/gcc/powerpc64-ps3-elf/4.5.2/../../../../powerpc64-ps3-elf/lib\libc.a(lib_a-svfiscanf.o)
                0x000000000001aa38                .__ssrefill_r
 .text._sfread_r
                0x000000000001aad8      0x194 c:/psdk3v2/ps3dev/ppu/bin/../lib/gcc/powerpc64-ps3-elf/4.5.2/../../../../powerpc64-ps3-elf/lib\libc.a(lib_a-svfiscanf.o)
                0x000000000001aad8                ._sfread_r
 *fill*         0x000000000001ac6c        0x4 60000000
 .text.__ssvfiscanf_r
                0x000000000001ac70     0x1208 c:/psdk3v2/ps3dev/ppu/bin/../lib/gcc/powerpc64-ps3-elf/4.5.2/../../../../powerpc64-ps3-elf/lib\libc.a(lib_a-svfiscanf.o)
                0x000000000001ac70                .__ssvfiscanf_r
 .text          0x000000000001be78        0x0 c:/psdk3v2/ps3dev/ppu/bin/../lib/gcc/powerpc64-ps3-elf/4.5.2/../../../../powerpc64-ps3-elf/lib\libc.a(lib_a-svfprintf.o)
 .text._svfprintf_r
                0x000000000001be78     0x2120 c:/psdk3v2/ps3dev/ppu/bin/../lib/gcc/powerpc64-ps3-elf/4.5.2/../../../../powerpc64-ps3-elf/lib\libc.a(lib_a-svfprintf.o)
                0x000000000001be78                ._svfprintf_r
 .text          0x000000000001df98        0x0 c:/psdk3v2/ps3dev/ppu/bin/../lib/gcc/powerpc64-ps3-elf/4.5.2/../../../../powerpc64-ps3-elf/lib\libc.a(lib_a-ungetc.o)
 .text.__submore
                0x000000000001df98      0x124 c:/psdk3v2/ps3dev/ppu/bin/../lib/gcc/powerpc64-ps3-elf/4.5.2/../../../../powerpc64-ps3-elf/lib\libc.a(lib_a-ungetc.o)
                0x000000000001df98                .__submore
 *fill*         0x000000000001e0bc        0x4 60000000
 .text._ungetc_r
                0x000000000001e0c0      0x2b8 c:/psdk3v2/ps3dev/ppu/bin/../lib/gcc/powerpc64-ps3-elf/4.5.2/../../../../powerpc64-ps3-elf/lib\libc.a(lib_a-ungetc.o)
                0x000000000001e0c0                ._ungetc_r
 .text.ungetc   0x000000000001e378       0x50 c:/psdk3v2/ps3dev/ppu/bin/../lib/gcc/powerpc64-ps3-elf/4.5.2/../../../../powerpc64-ps3-elf/lib\libc.a(lib_a-ungetc.o)
                0x000000000001e378                .ungetc
 .text          0x000000000001e3c8        0x0 c:/psdk3v2/ps3dev/ppu/bin/../lib/gcc/powerpc64-ps3-elf/4.5.2/../../../../powerpc64-ps3-elf/lib\libc.a(lib_a-dtoa.o)
 .text.quorem   0x000000000001e3c8      0x258 c:/psdk3v2/ps3dev/ppu/bin/../lib/gcc/powerpc64-ps3-elf/4.5.2/../../../../powerpc64-ps3-elf/lib\libc.a(lib_a-dtoa.o)
 .text._dtoa_r  0x000000000001e620     0x1328 c:/psdk3v2/ps3dev/ppu/bin/../lib/gcc/powerpc64-ps3-elf/4.5.2/../../../../powerpc64-ps3-elf/lib\libc.a(lib_a-dtoa.o)
                0x000000000001e620                ._dtoa_r
 .text          0x000000000001f948        0x0 c:/psdk3v2/ps3dev/ppu/bin/../lib/gcc/powerpc64-ps3-elf/4.5.2/../../../../powerpc64-ps3-elf/lib\libc.a(lib_a-fclose.o)
 .text._fclose_r
                0x000000000001f948      0x1ec c:/psdk3v2/ps3dev/ppu/bin/../lib/gcc/powerpc64-ps3-elf/4.5.2/../../../../powerpc64-ps3-elf/lib\libc.a(lib_a-fclose.o)
                0x000000000001f948                ._fclose_r
 *fill*         0x000000000001fb34        0x4 60000000
 .text.fclose   0x000000000001fb38       0x40 c:/psdk3v2/ps3dev/ppu/bin/../lib/gcc/powerpc64-ps3-elf/4.5.2/../../../../powerpc64-ps3-elf/lib\libc.a(lib_a-fclose.o)
                0x000000000001fb38                .fclose
 .text          0x000000000001fb78        0x0 c:/psdk3v2/ps3dev/ppu/bin/../lib/gcc/powerpc64-ps3-elf/4.5.2/../../../../powerpc64-ps3-elf/lib\libc.a(lib_a-fflush.o)
 .text._fflush_r
                0x000000000001fb78      0x410 c:/psdk3v2/ps3dev/ppu/bin/../lib/gcc/powerpc64-ps3-elf/4.5.2/../../../../powerpc64-ps3-elf/lib\libc.a(lib_a-fflush.o)
                0x000000000001fb78                ._fflush_r
 .text.fflush   0x000000000001ff88       0x74 c:/psdk3v2/ps3dev/ppu/bin/../lib/gcc/powerpc64-ps3-elf/4.5.2/../../../../powerpc64-ps3-elf/lib\libc.a(lib_a-fflush.o)
                0x000000000001ff88                .fflush
 .text          0x000000000001fffc        0x0 c:/psdk3v2/ps3dev/ppu/bin/../lib/gcc/powerpc64-ps3-elf/4.5.2/../../../../powerpc64-ps3-elf/lib\libc.a(lib_a-gdtoa-gethex.o)
 *fill*         0x000000000001fffc        0x4 60000000
 .text.rshift   0x0000000000020000      0x164 c:/psdk3v2/ps3dev/ppu/bin/../lib/gcc/powerpc64-ps3-elf/4.5.2/../../../../powerpc64-ps3-elf/lib\libc.a(lib_a-gdtoa-gethex.o)
 *fill*         0x0000000000020164        0x4 60000000
 .text.__hexdig_init
                0x0000000000020168       0x8c c:/psdk3v2/ps3dev/ppu/bin/../lib/gcc/powerpc64-ps3-elf/4.5.2/../../../../powerpc64-ps3-elf/lib\libc.a(lib_a-gdtoa-gethex.o)
                0x0000000000020168                .__hexdig_init
 *fill*         0x00000000000201f4        0x4 60000000
 .text.__gethex
                0x00000000000201f8      0x934 c:/psdk3v2/ps3dev/ppu/bin/../lib/gcc/powerpc64-ps3-elf/4.5.2/../../../../powerpc64-ps3-elf/lib\libc.a(lib_a-gdtoa-gethex.o)
                0x00000000000201f8                .__gethex
 .text          0x0000000000020b2c        0x0 c:/psdk3v2/ps3dev/ppu/bin/../lib/gcc/powerpc64-ps3-elf/4.5.2/../../../../powerpc64-ps3-elf/lib\libc.a(lib_a-gdtoa-hexnan.o)
 *fill*         0x0000000000020b2c        0x4 60000000
 .text.__hexnan
                0x0000000000020b30      0x324 c:/psdk3v2/ps3dev/ppu/bin/../lib/gcc/powerpc64-ps3-elf/4.5.2/../../../../powerpc64-ps3-elf/lib\libc.a(lib_a-gdtoa-hexnan.o)
                0x0000000000020b30                .__hexnan
 .text          0x0000000000020e54        0x0 c:/psdk3v2/ps3dev/ppu/bin/../lib/gcc/powerpc64-ps3-elf/4.5.2/../../../../powerpc64-ps3-elf/lib\libc.a(lib_a-memchr.o)
 *fill*         0x0000000000020e54        0x4 60000000
 .text.memchr   0x0000000000020e58      0x13c c:/psdk3v2/ps3dev/ppu/bin/../lib/gcc/powerpc64-ps3-elf/4.5.2/../../../../powerpc64-ps3-elf/lib\libc.a(lib_a-memchr.o)
                0x0000000000020e58                .memchr
 .text          0x0000000000020f94        0x0 c:/psdk3v2/ps3dev/ppu/bin/../lib/gcc/powerpc64-ps3-elf/4.5.2/../../../../powerpc64-ps3-elf/lib\libc.a(lib_a-memcpy.o)
 *fill*         0x0000000000020f94        0x4 60000000
 .text.memcpy   0x0000000000020f98       0xf8 c:/psdk3v2/ps3dev/ppu/bin/../lib/gcc/powerpc64-ps3-elf/4.5.2/../../../../powerpc64-ps3-elf/lib\libc.a(lib_a-memcpy.o)
                0x0000000000020f98                .memcpy
 .text          0x0000000000021090        0x0 c:/psdk3v2/ps3dev/ppu/bin/../lib/gcc/powerpc64-ps3-elf/4.5.2/../../../../powerpc64-ps3-elf/lib\libc.a(lib_a-mprec.o)
 .text._Balloc  0x0000000000021090       0xd4 c:/psdk3v2/ps3dev/ppu/bin/../lib/gcc/powerpc64-ps3-elf/4.5.2/../../../../powerpc64-ps3-elf/lib\libc.a(lib_a-mprec.o)
                0x0000000000021090                ._Balloc
 *fill*         0x0000000000021164        0x4 60000000
 .text._Bfree   0x0000000000021168       0x34 c:/psdk3v2/ps3dev/ppu/bin/../lib/gcc/powerpc64-ps3-elf/4.5.2/../../../../powerpc64-ps3-elf/lib\libc.a(lib_a-mprec.o)
                0x0000000000021168                ._Bfree
 *fill*         0x000000000002119c        0x4 60000000
 .text.__multadd
                0x00000000000211a0      0x164 c:/psdk3v2/ps3dev/ppu/bin/../lib/gcc/powerpc64-ps3-elf/4.5.2/../../../../powerpc64-ps3-elf/lib\libc.a(lib_a-mprec.o)
                0x00000000000211a0                .__multadd
 *fill*         0x0000000000021304        0x4 60000000
 .text.__s2b    0x0000000000021308      0x164 c:/psdk3v2/ps3dev/ppu/bin/../lib/gcc/powerpc64-ps3-elf/4.5.2/../../../../powerpc64-ps3-elf/lib\libc.a(lib_a-mprec.o)
                0x0000000000021308                .__s2b
 *fill*         0x000000000002146c        0x4 60000000
 .text.__hi0bits
                0x0000000000021470       0x94 c:/psdk3v2/ps3dev/ppu/bin/../lib/gcc/powerpc64-ps3-elf/4.5.2/../../../../powerpc64-ps3-elf/lib\libc.a(lib_a-mprec.o)
                0x0000000000021470                .__hi0bits
 *fill*         0x0000000000021504        0x4 60000000
 .text.__lo0bits
                0x0000000000021508       0xec c:/psdk3v2/ps3dev/ppu/bin/../lib/gcc/powerpc64-ps3-elf/4.5.2/../../../../powerpc64-ps3-elf/lib\libc.a(lib_a-mprec.o)
                0x0000000000021508                .__lo0bits
 *fill*         0x00000000000215f4        0x4 60000000
 .text.__i2b    0x00000000000215f8       0x48 c:/psdk3v2/ps3dev/ppu/bin/../lib/gcc/powerpc64-ps3-elf/4.5.2/../../../../powerpc64-ps3-elf/lib\libc.a(lib_a-mprec.o)
                0x00000000000215f8                .__i2b
 .text.__multiply
                0x0000000000021640      0x2a0 c:/psdk3v2/ps3dev/ppu/bin/../lib/gcc/powerpc64-ps3-elf/4.5.2/../../../../powerpc64-ps3-elf/lib\libc.a(lib_a-mprec.o)
                0x0000000000021640                .__multiply
 .text.__pow5mult
                0x00000000000218e0      0x15c c:/psdk3v2/ps3dev/ppu/bin/../lib/gcc/powerpc64-ps3-elf/4.5.2/../../../../powerpc64-ps3-elf/lib\libc.a(lib_a-mprec.o)
                0x00000000000218e0                .__pow5mult
 *fill*         0x0000000000021a3c        0x4 60000000
 .text.__lshift
                0x0000000000021a40      0x1c8 c:/psdk3v2/ps3dev/ppu/bin/../lib/gcc/powerpc64-ps3-elf/4.5.2/../../../../powerpc64-ps3-elf/lib\libc.a(lib_a-mprec.o)
                0x0000000000021a40                .__lshift
 .text.__mcmp   0x0000000000021c08       0x84 c:/psdk3v2/ps3dev/ppu/bin/../lib/gcc/powerpc64-ps3-elf/4.5.2/../../../../powerpc64-ps3-elf/lib\libc.a(lib_a-mprec.o)
                0x0000000000021c08                .__mcmp
 *fill*         0x0000000000021c8c        0x4 60000000
 .text.__mdiff  0x0000000000021c90      0x1fc c:/psdk3v2/ps3dev/ppu/bin/../lib/gcc/powerpc64-ps3-elf/4.5.2/../../../../powerpc64-ps3-elf/lib\libc.a(lib_a-mprec.o)
                0x0000000000021c90                .__mdiff
 *fill*         0x0000000000021e8c        0x4 60000000
 .text.__ulp    0x0000000000021e90       0xb8 c:/psdk3v2/ps3dev/ppu/bin/../lib/gcc/powerpc64-ps3-elf/4.5.2/../../../../powerpc64-ps3-elf/lib\libc.a(lib_a-mprec.o)
                0x0000000000021e90                .__ulp
 .text.__b2d    0x0000000000021f48      0x1c0 c:/psdk3v2/ps3dev/ppu/bin/../lib/gcc/powerpc64-ps3-elf/4.5.2/../../../../powerpc64-ps3-elf/lib\libc.a(lib_a-mprec.o)
                0x0000000000021f48                .__b2d
 .text.__d2b    0x0000000000022108      0x1ac c:/psdk3v2/ps3dev/ppu/bin/../lib/gcc/powerpc64-ps3-elf/4.5.2/../../../../powerpc64-ps3-elf/lib\libc.a(lib_a-mprec.o)
                0x0000000000022108                .__d2b
 *fill*         0x00000000000222b4        0x4 60000000
 .text.__ratio  0x00000000000222b8       0xf8 c:/psdk3v2/ps3dev/ppu/bin/../lib/gcc/powerpc64-ps3-elf/4.5.2/../../../../powerpc64-ps3-elf/lib\libc.a(lib_a-mprec.o)
                0x00000000000222b8                .__ratio
 .text._mprec_log10
                0x00000000000223b0       0x4c c:/psdk3v2/ps3dev/ppu/bin/../lib/gcc/powerpc64-ps3-elf/4.5.2/../../../../powerpc64-ps3-elf/lib\libc.a(lib_a-mprec.o)
                0x00000000000223b0                ._mprec_log10
 *fill*         0x00000000000223fc        0x4 60000000
 .text.__copybits
                0x0000000000022400       0x98 c:/psdk3v2/ps3dev/ppu/bin/../lib/gcc/powerpc64-ps3-elf/4.5.2/../../../../powerpc64-ps3-elf/lib\libc.a(lib_a-mprec.o)
                0x0000000000022400                .__copybits
 .text.__any_on
                0x0000000000022498       0xf4 c:/psdk3v2/ps3dev/ppu/bin/../lib/gcc/powerpc64-ps3-elf/4.5.2/../../../../powerpc64-ps3-elf/lib\libc.a(lib_a-mprec.o)
                0x0000000000022498                .__any_on
 .text          0x000000000002258c        0x0 c:/psdk3v2/ps3dev/ppu/bin/../lib/gcc/powerpc64-ps3-elf/4.5.2/../../../../powerpc64-ps3-elf/lib\libc.a(lib_a-reallocr.o)
 *fill*         0x000000000002258c        0x4 60000000
 .text._realloc_r
                0x0000000000022590      0x710 c:/psdk3v2/ps3dev/ppu/bin/../lib/gcc/powerpc64-ps3-elf/4.5.2/../../../../powerpc64-ps3-elf/lib\libc.a(lib_a-reallocr.o)
                0x0000000000022590                ._realloc_r
 .text          0x0000000000022ca0        0x0 c:/psdk3v2/ps3dev/ppu/bin/../lib/gcc/powerpc64-ps3-elf/4.5.2/../../../../powerpc64-ps3-elf/lib\libc.a(lib_a-svfiprintf.o)
 .text.__ssprint_r
                0x0000000000022ca0      0x300 c:/psdk3v2/ps3dev/ppu/bin/../lib/gcc/powerpc64-ps3-elf/4.5.2/../../../../powerpc64-ps3-elf/lib\libc.a(lib_a-svfiprintf.o)
                0x0000000000022ca0                .__ssprint_r
 .text._svfiprintf_r
                0x0000000000022fa0     0x1064 c:/psdk3v2/ps3dev/ppu/bin/../lib/gcc/powerpc64-ps3-elf/4.5.2/../../../../powerpc64-ps3-elf/lib\libc.a(lib_a-svfiprintf.o)
                0x0000000000022fa0                ._svfiprintf_r
 .text          0x0000000000024004        0x0 c:/psdk3v2/ps3dev/ppu/bin/../lib/gcc/powerpc64-ps3-elf/4.5.2/../../../../powerpc64-ps3-elf/lib\libc.a(lib_a-callocr.o)
 *fill*         0x0000000000024004        0x4 60000000
 .text._calloc_r
                0x0000000000024008       0xe8 c:/psdk3v2/ps3dev/ppu/bin/../lib/gcc/powerpc64-ps3-elf/4.5.2/../../../../powerpc64-ps3-elf/lib\libc.a(lib_a-callocr.o)
                0x0000000000024008                ._calloc_r
 .text          0x00000000000240f0        0x0 c:/psdk3v2/ps3dev/ppu/bin/../lib/gcc/powerpc64-ps3-elf/4.5.2/../../../../powerpc64-ps3-elf/lib\libc.a(lib_a-memmove.o)
 .text.memmove  0x00000000000240f0      0x130 c:/psdk3v2/ps3dev/ppu/bin/../lib/gcc/powerpc64-ps3-elf/4.5.2/../../../../powerpc64-ps3-elf/lib\libc.a(lib_a-memmove.o)
                0x00000000000240f0                .memmove
 .text          0x0000000000024220        0x0 c:/psdk3v2/ps3dev/ppu/bin/../lib/gcc/powerpc64-ps3-elf/4.5.2/../../../../powerpc64-ps3-elf/lib\libsysbase.a(close.o)
 .text._close_r
                0x0000000000024220       0x6c c:/psdk3v2/ps3dev/ppu/bin/../lib/gcc/powerpc64-ps3-elf/4.5.2/../../../../powerpc64-ps3-elf/lib\libsysbase.a(close.o)
                0x0000000000024220                ._close_r
 .text          0x000000000002428c        0x0 c:/psdk3v2/ps3dev/ppu/bin/../lib/gcc/powerpc64-ps3-elf/4.5.2/../../../../powerpc64-ps3-elf/lib\libsysbase.a(lseek.o)
 *fill*         0x000000000002428c        0x4 60000000
 .text._lseek_r
                0x0000000000024290       0x6c c:/psdk3v2/ps3dev/ppu/bin/../lib/gcc/powerpc64-ps3-elf/4.5.2/../../../../powerpc64-ps3-elf/lib\libsysbase.a(lseek.o)
                0x0000000000024290                ._lseek_r
 .text          0x00000000000242fc        0x0 c:/psdk3v2/ps3dev/ppu/bin/../lib/gcc/powerpc64-ps3-elf/4.5.2/../../../../powerpc64-ps3-elf/lib\libsysbase.a(read.o)
 *fill*         0x00000000000242fc        0x4 60000000
 .text._read_r  0x0000000000024300       0x6c c:/psdk3v2/ps3dev/ppu/bin/../lib/gcc/powerpc64-ps3-elf/4.5.2/../../../../powerpc64-ps3-elf/lib\libsysbase.a(read.o)
                0x0000000000024300                ._read_r
 .text          0x000000000002436c        0x0 c:/psdk3v2/ps3dev/ppu/bin/../lib/gcc/powerpc64-ps3-elf/4.5.2/../../../../powerpc64-ps3-elf/lib\libsysbase.a(write.o)
 *fill*         0x000000000002436c        0x4 60000000
 .text._write_r
                0x0000000000024370       0x6c c:/psdk3v2/ps3dev/ppu/bin/../lib/gcc/powerpc64-ps3-elf/4.5.2/../../../../powerpc64-ps3-elf/lib\libsysbase.a(write.o)
                0x0000000000024370                ._write_r
 .text          0x00000000000243dc        0x0 c:/psdk3v2/ps3dev/ppu/bin/../lib/gcc/powerpc64-ps3-elf/4.5.2/crtend.o
 *fill*         0x00000000000243dc        0x4 60000000
 .text.__do_global_ctors_aux
                0x00000000000243e0       0x64 c:/psdk3v2/ps3dev/ppu/bin/../lib/gcc/powerpc64-ps3-elf/4.5.2/crtend.o
 .text          0x0000000000024444        0x0 c:/psdk3v2/ps3dev/ppu/bin/../lib/gcc/powerpc64-ps3-elf/4.5.2/../../../../powerpc64-ps3-elf/lib/lv2-crtn.o
 *(.text.*personality*)
 *(.gnu.warning)
 *(.sfpr .glink)
 .sfpr          0x0000000000000000        0x0 linker stubs
 *fill*         0x0000000000024444        0x0 60000000
 .glink         0x0000000000000000        0x0 linker stubs

.fini           0x0000000000024444       0x2c
 *(.fini)
 .fini          0x0000000000024444        0xc c:/psdk3v2/ps3dev/ppu/bin/../lib/gcc/powerpc64-ps3-elf/4.5.2/../../../../powerpc64-ps3-elf/lib/lv2-crti.o
                0x0000000000024444                ._fini
 .fini          0x0000000000024450        0x8 c:/psdk3v2/ps3dev/ppu/bin/../lib/gcc/powerpc64-ps3-elf/4.5.2/crtbegin.o
 .fini          0x0000000000024458        0x8 c:/PSDK3v2/psl1ght/ppu/lib\librt.a(sbrk.o)
 .fini          0x0000000000024460       0x10 c:/psdk3v2/ps3dev/ppu/bin/../lib/gcc/powerpc64-ps3-elf/4.5.2/../../../../powerpc64-ps3-elf/lib/lv2-crtn.o

.sceStub.text   0x0000000000024470     0x1dc0
 *(.sceStub.text)
 .sceStub.text  0x0000000000024470     0x1dc0 c:/PSDK3v2/psl1ght/ppu/lib\liblv2.a(sprx.o)
                0x0000000000024470                __sysGetSystemTime
                0x00000000000244b0                __sysGetSystemSwVersion
                0x00000000000244f0                __sysGetTemperature
                0x0000000000024530                __sysGetRandomNumber
                0x0000000000024570                __sysGetRtcStatus
                0x00000000000245b0                __sysBoardStorageRead
                0x00000000000245f0                __sysBoardStorageWrite
                0x0000000000024630                __sysProcessIsStack
                0x0000000000024670                __sysProcessExit
                0x0000000000024670                .sysProcessExit
                0x00000000000246b0                __sysProcessExitspawn
                0x00000000000246f0                __sysProcessExitSpawn2Ex
                0x00000000000246f0                .sysProcessExitSpawn2Ex
                0x0000000000024730                __sysProcessExitSpawnWithLevel
                0x0000000000024770                __sysProcessAtExitSpawn
                0x00000000000247b0                __sysProcess_At_ExitSpawn
                0x00000000000247f0                __sysPrxRegisterLibrary
                0x0000000000024830                __sysPrxUnregisterLibrary
                0x0000000000024870                __sysPrxStartModule
                0x00000000000248b0                __sysPrxStopModule
                0x00000000000248f0                __sysPrxLoadModule
                0x0000000000024930                __sysPrxLoadModuleByFd
                0x0000000000024970                __sysPrxLoadModuleList
                0x00000000000249b0                __sysPrxLoadModuleListOnMemcontainer
                0x00000000000249f0                __sysPrxLoadModuleOnMemcontainer
                0x0000000000024a30                __sysPrxLoadModuleOnMemcontainerByFd
                0x0000000000024a70                __sysPrxGetModuleInfo
                0x0000000000024ab0                __sysPrxGetModuleList
                0x0000000000024af0                __sysPrxGetModuleId
                0x0000000000024b30                __sysPrxGetModuleIdByAddress
                0x0000000000024b70                __sysPrxGetModuleIdByName
                0x0000000000024bb0                __sysPrxUnloadModule
                0x0000000000024bf0                __sysPrxExitSpawnWithLevel
                0x0000000000024c30                __sysThreadCreateEx
                0x0000000000024c70                __sysThreadExit
                0x0000000000024cb0                __sysThreadGetId
                0x0000000000024cf0                __sysThreadOnce
                0x0000000000024d30                __sysThreadInitialzeTLS
                0x0000000000024d70                __sysThreadRegisterAtexit
                0x0000000000024db0                __sysThreadUnregisterAtexit
                0x0000000000024df0                __sysInterruptThreadDisestablish
                0x0000000000024e30                __sysLwMutexCreate
                0x0000000000024e30                .sysLwMutexCreate
                0x0000000000024e70                __sysLwMutexDestroy
                0x0000000000024e70                .sysLwMutexDestroy
                0x0000000000024eb0                __sysLwMutexLock
                0x0000000000024eb0                .sysLwMutexLock
                0x0000000000024ef0                __sysLwMutexTryLock
                0x0000000000024ef0                .sysLwMutexTryLock
                0x0000000000024f30                .sysLwMutexUnlock
                0x0000000000024f30                __sysLwMutexUnlock
                0x0000000000024f70                __sysLwCondCreate
                0x0000000000024fb0                __sysLwCondWait
                0x0000000000024ff0                __sysLwCondSignal
                0x0000000000025030                __sysLwCondSignalTo
                0x0000000000025070                __sysLwCondSignalAll
                0x00000000000250b0                __sysLwCondDestroy
                0x00000000000250f0                .sysSpinlockInitialize
                0x00000000000250f0                __sysSpinlockInitialize
                0x0000000000025130                __sysSpinlockLock
                0x0000000000025130                .sysSpinlockLock
                0x0000000000025170                __sysSpinlockTryLock
                0x00000000000251b0                .sysSpinlockUnlock
                0x00000000000251b0                __sysSpinlockUnlock
                0x00000000000251f0                __sysWatchdogClear
                0x0000000000025230                __sysWatchdogStart
                0x0000000000025270                __sysWatchdogStop
                0x00000000000252b0                __sysMalloc
                0x00000000000252f0                __sysMemalign
                0x0000000000025330                __sysMemchr
                0x0000000000025370                __sysMemcmp
                0x00000000000253b0                __sysMemcpy
                0x00000000000253f0                __sysMemmove
                0x0000000000025430                __sysMemset
                0x0000000000025470                __sysFree
                0x00000000000254b0                __sysHeapAllocHeapMemory
                0x00000000000254f0                __sysHeapCreateHeap
                0x0000000000025530                __sysHeapDeleteHeap
                0x0000000000025570                __sysHeapFree
                0x00000000000255b0                __sysHeapGetMallInfo
                0x00000000000255f0                __sysHeapGetTotalFreeSize
                0x0000000000025630                __sysHeapMalloc
                0x0000000000025670                __sysHeapMemalign
                0x00000000000256b0                __sysHeapStats
                0x00000000000256f0                __sysQsort
                0x0000000000025730                __sysMempoolCreate
                0x0000000000025770                __sysMempoolDestroy
                0x00000000000257b0                __sysMempoolGetCount
                0x00000000000257f0                __sysMempoolAllocateBlock
                0x0000000000025830                __sysMempoolTryAllocateBlock
                0x0000000000025870                __sysMempoolFreeBlock
                0x00000000000258b0                .sysMMapperFreeMemory
                0x00000000000258b0                __sysMMapperFreeMemory
                0x00000000000258f0                __sysMMapperMapMemory
                0x0000000000025930                .sysMMapperUnmapMemory
                0x0000000000025930                __sysMMapperUnmapMemory
                0x0000000000025970                .sysMMapperAllocateMemory
                0x0000000000025970                __sysMMapperAllocateMemory
                0x00000000000259b0                __sysMMapperAllocateMemoryFromContainer
                0x00000000000259f0                __sysStrlen
                0x0000000000025a30                __sysStrcpy
                0x0000000000025a70                __sysStrncpy
                0x0000000000025ab0                __sysStrcat
                0x0000000000025af0                __sysStrncat
                0x0000000000025b30                __sysStrchr
                0x0000000000025b70                __sysStrrchr
                0x0000000000025bb0                __sysStrcmp
                0x0000000000025bf0                __sysStrncmp
                0x0000000000025c30                __sysStrncasecmp
                0x0000000000025c70                __sysToLower
                0x0000000000025cb0                __sysToUpper
                0x0000000000025cf0                __sysSpuElfGetSegments
                0x0000000000025d30                __sysSpuElfGetInformation
                0x0000000000025d70                __sysSpuRawLoad
                0x0000000000025db0                __sysSpuRawImageLoad
                0x0000000000025df0                __sysSpuImageClose
                0x0000000000025e30                __sysSpuImageImport
                0x0000000000025e70                __sysSpuPrintfAttachGroup
                0x0000000000025eb0                __sysSpuPrintfAttachThread
                0x0000000000025ef0                __sysSpuPrintfDetachGroup
                0x0000000000025f30                __sysSpuPrintfDetach_Tread
                0x0000000000025f70                __sysSpuPrintfFinalize
                0x0000000000025fb0                __sysSpuPrintfInitialize
                0x0000000000025ff0                __sysConsoleGetc
                0x0000000000026030                __sysConsolePutc
                0x0000000000026070                __sysConsoleWrite
                0x00000000000260b0                __sysPrintf
                0x00000000000260f0                __sysSprintf
                0x0000000000026130                __sysSnprintf
                0x0000000000026170                __sysVprintf
                0x00000000000261b0                __sysVsprintf
                0x00000000000261f0                __sysVsnprintf
 *(SORT(.sceStub.text.*))
                0x0000000000026230                PROVIDE (__etext, .)
                0x0000000000026230                PROVIDE (_etext, .)
                0x0000000000026230                PROVIDE (etext, .)

.eh_frame_hdr   0x0000000000026230        0x0
 *(.eh_frame_hdr)
 .eh_frame_hdr  0x0000000000000000        0x0 c:/psdk3v2/ps3dev/ppu/bin/../lib/gcc/powerpc64-ps3-elf/4.5.2/../../../../powerpc64-ps3-elf/lib/lv2-crtn.o

.eh_frame       0x0000000000026230        0x4
 *(.eh_frame)
 .eh_frame      0x0000000000026230        0x0 c:/psdk3v2/ps3dev/ppu/bin/../lib/gcc/powerpc64-ps3-elf/4.5.2/crtbegin.o
 .eh_frame      0x0000000000026230        0x4 c:/psdk3v2/ps3dev/ppu/bin/../lib/gcc/powerpc64-ps3-elf/4.5.2/crtend.o

.gcc_except_table
 *(.gcc_except_table .gcc_except_table.*)

.rodata.sceResident
                0x0000000000026234       0x12
 *(.rodata.sceResident)
 .rodata.sceResident
                0x0000000000026234       0x12 c:/PSDK3v2/psl1ght/ppu/lib\liblv2.a(sprx.o)

.rodata.sceFNID
                0x0000000000026248      0x1dc
 *(.rodata.sceFNID .rodata.sceFNID.*)
 .rodata.sceFNID
                0x0000000000026248      0x1dc c:/PSDK3v2/psl1ght/ppu/lib\liblv2.a(sprx.o)
                0x0000000000026248                sysPrxForUser
                0x0000000000026248                sysGetSystemTime_fnid
                0x000000000002624c                sysGetSystemSwVersion_fnid
                0x0000000000026250                sysGetTemperature_fnid
                0x0000000000026254                sysGetRandomNumber_fnid
                0x0000000000026258                sysGetRtcStatus_fnid
                0x000000000002625c                sysBoardStorageRead_fnid
                0x0000000000026260                sysBoardStorageWrite_fnid
                0x0000000000026264                sysProcessIsStack_fnid
                0x0000000000026268                sysProcessExit_fnid
                0x000000000002626c                sysProcessExitspawn_fnid
                0x0000000000026270                sysProcessExitSpawn2Ex_fnid
                0x0000000000026274                sysProcessExitSpawnWithLevel_fnid
                0x0000000000026278                sysProcessAtExitSpawn_fnid
                0x000000000002627c                sysProcess_At_ExitSpawn_fnid
                0x0000000000026280                sysPrxRegisterLibrary_fnid
                0x0000000000026284                sysPrxUnregisterLibrary_fnid
                0x0000000000026288                sysPrxStartModule_fnid
                0x000000000002628c                sysPrxStopModule_fnid
                0x0000000000026290                sysPrxLoadModule_fnid
                0x0000000000026294                sysPrxLoadModuleByFd_fnid
                0x0000000000026298                sysPrxLoadModuleList_fnid
                0x000000000002629c                sysPrxLoadModuleListOnMemcontainer_fnid
                0x00000000000262a0                sysPrxLoadModuleOnMemcontainer_fnid
                0x00000000000262a4                sysPrxLoadModuleOnMemcontainerByFd_fnid
                0x00000000000262a8                sysPrxGetModuleInfo_fnid
                0x00000000000262ac                sysPrxGetModuleList_fnid
                0x00000000000262b0                sysPrxGetModuleId_fnid
                0x00000000000262b4                sysPrxGetModuleIdByAddress_fnid
                0x00000000000262b8                sysPrxGetModuleIdByName_fnid
                0x00000000000262bc                sysPrxUnloadModule_fnid
                0x00000000000262c0                sysPrxExitSpawnWithLevel_fnid
                0x00000000000262c4                sysThreadCreateEx_fnid
                0x00000000000262c8                sysThreadExit_fnid
                0x00000000000262cc                sysThreadGetId_fnid
                0x00000000000262d0                sysThreadOnce_fnid
                0x00000000000262d4                sysThreadInitialzeTLS_fnid
                0x00000000000262d8                sysThreadRegisterAtexit_fnid
                0x00000000000262dc                sysThreadUnregisterAtexit_fnid
                0x00000000000262e0                sysInterruptThreadDisestablish_fnid
                0x00000000000262e4                sysLwMutexCreate_fnid
                0x00000000000262e8                sysLwMutexDestroy_fnid
                0x00000000000262ec                sysLwMutexLock_fnid
                0x00000000000262f0                sysLwMutexTryLock_fnid
                0x00000000000262f4                sysLwMutexUnlock_fnid
                0x00000000000262f8                sysLwCondCreate_fnid
                0x00000000000262fc                sysLwCondWait_fnid
                0x0000000000026300                sysLwCondSignal_fnid
                0x0000000000026304                sysLwCondSignalTo_fnid
                0x0000000000026308                sysLwCondSignalAll_fnid
                0x000000000002630c                sysLwCondDestroy_fnid
                0x0000000000026310                sysSpinlockInitialize_fnid
                0x0000000000026314                sysSpinlockLock_fnid
                0x0000000000026318                sysSpinlockTryLock_fnid
                0x000000000002631c                sysSpinlockUnlock_fnid
                0x0000000000026320                sysWatchdogClear_fnid
                0x0000000000026324                sysWatchdogStart_fnid
                0x0000000000026328                sysWatchdogStop_fnid
                0x000000000002632c                sysMalloc_fnid
                0x0000000000026330                sysMemalign_fnid
                0x0000000000026334                sysMemchr_fnid
                0x0000000000026338                sysMemcmp_fnid
                0x000000000002633c                sysMemcpy_fnid
                0x0000000000026340                sysMemmove_fnid
                0x0000000000026344                sysMemset_fnid
                0x0000000000026348                sysFree_fnid
                0x000000000002634c                sysHeapAllocHeapMemory_fnid
                0x0000000000026350                sysHeapCreateHeap_fnid
                0x0000000000026354                sysHeapDeleteHeap_fnid
                0x0000000000026358                sysHeapFree_fnid
                0x000000000002635c                sysHeapGetMallInfo_fnid
                0x0000000000026360                sysHeapGetTotalFreeSize_fnid
                0x0000000000026364                sysHeapMalloc_fnid
                0x0000000000026368                sysHeapMemalign_fnid
                0x000000000002636c                sysHeapStats_fnid
                0x0000000000026370                sysQsort_fnid
                0x0000000000026374                sysMempoolCreate_fnid
                0x0000000000026378                sysMempoolDestroy_fnid
                0x000000000002637c                sysMempoolGetCount_fnid
                0x0000000000026380                sysMempoolAllocateBlock_fnid
                0x0000000000026384                sysMempoolTryAllocateBlock_fnid
                0x0000000000026388                sysMempoolFreeBlock_fnid
                0x000000000002638c                sysMMapperFreeMemory_fnid
                0x0000000000026390                sysMMapperMapMemory_fnid
                0x0000000000026394                sysMMapperUnmapMemory_fnid
                0x0000000000026398                sysMMapperAllocateMemory_fnid
                0x000000000002639c                sysMMapperAllocateMemoryFromContainer_fnid
                0x00000000000263a0                sysStrlen_fnid
                0x00000000000263a4                sysStrcpy_fnid
                0x00000000000263a8                sysStrncpy_fnid
                0x00000000000263ac                sysStrcat_fnid
                0x00000000000263b0                sysStrncat_fnid
                0x00000000000263b4                sysStrchr_fnid
                0x00000000000263b8                sysStrrchr_fnid
                0x00000000000263bc                sysStrcmp_fnid
                0x00000000000263c0                sysStrncmp_fnid
                0x00000000000263c4                sysStrncasecmp_fnid
                0x00000000000263c8                sysToLower_fnid
                0x00000000000263cc                sysToUpper_fnid
                0x00000000000263d0                sysSpuElfGetSegments_fnid
                0x00000000000263d4                sysSpuElfGetInformation_fnid
                0x00000000000263d8                sysSpuRawLoad_fnid
                0x00000000000263dc                sysSpuRawImageLoad_fnid
                0x00000000000263e0                sysSpuImageClose_fnid
                0x00000000000263e4                sysSpuImageImport_fnid
                0x00000000000263e8                sysSpuPrintfAttachGroup_fnid
                0x00000000000263ec                sysSpuPrintfAttachThread_fnid
                0x00000000000263f0                sysSpuPrintfDetachGroup_fnid
                0x00000000000263f4                sysSpuPrintfDetach_Tread_fnid
                0x00000000000263f8                sysSpuPrintfFinalize_fnid
                0x00000000000263fc                sysSpuPrintfInitialize_fnid
                0x0000000000026400                sysConsoleGetc_fnid
                0x0000000000026404                sysConsolePutc_fnid
                0x0000000000026408                sysConsoleWrite_fnid
                0x000000000002640c                sysPrintf_fnid
                0x0000000000026410                sysSprintf_fnid
                0x0000000000026414                sysSnprintf_fnid
                0x0000000000026418                sysVprintf_fnid
                0x000000000002641c                sysVsprintf_fnid
                0x0000000000026420                sysVsnprintf_fnid

.rodata.sceVNID
 *(.rodata.sceVNID .rodata.sceVNID.*)

.rodata.sceTNID
 *(.rodata.sceTNID .rodata.sceTNID.*)

.rodata.sceVStub
 *(.rodata.sceVStub)
 *(SORT(.rodata.sceVStub.*))
                0x0000000000026424                PROVIDE (__libentstart, .)

.lib.ent.top
 *(.lib.ent.top)

.lib.ent        0x0000000000026424        0x0
 *(.lib.ent)
 .lib.ent       0x0000000000026424        0x0 c:/psdk3v2/ps3dev/ppu/bin/../lib/gcc/powerpc64-ps3-elf/4.5.2/../../../../powerpc64-ps3-elf/lib/lv2-sprx.o

.lib.ent.btm
 *(.lib.ent.btm)
                0x0000000000026424                PROVIDE (__libentend, .)
                0x0000000000026424                PROVIDE (__libstubstart, .)

.lib.stub.top
 *(.lib.stub.top)

.lib.stub       0x0000000000026424       0x2c
 *(.lib.stub)
 .lib.stub      0x0000000000026424        0x0 c:/psdk3v2/ps3dev/ppu/bin/../lib/gcc/powerpc64-ps3-elf/4.5.2/../../../../powerpc64-ps3-elf/lib/lv2-sprx.o
 .lib.stub      0x0000000000026424       0x2c c:/PSDK3v2/psl1ght/ppu/lib\liblv2.a(sprx.o)

.lib.stub.btm
 *(.lib.stub.btm)
                0x0000000000026450                PROVIDE (__libstubend, .)

.ppu_rodata
 *(.ppu_rodata .ppu_rodata.*)

.sys_proc_param
 *(.sys_proc_param)

.sys_proc_prx_param
                0x0000000000026450       0x28
 *(.sys_proc_prx_param)
 .sys_proc_prx_param
                0x0000000000026450       0x28 c:/psdk3v2/ps3dev/ppu/bin/../lib/gcc/powerpc64-ps3-elf/4.5.2/../../../../powerpc64-ps3-elf/lib/lv2-sprx.o
                0x0000000000030000                . = ALIGN (0x10000)

.ppu_data
 *(.ppu_data .ppu_data.*)

.sdata2
 *(.sdata2 .sdata2.* .gnu.linkonce.s2.*)

.sbss2
 *(.sbss2 .sbss2.* .gnu.linkonce.sb2.*)

.eh_frame
 *(.eh_frame)

.gcc_except_table
 *(.gcc_except_table .gcc_except_table.*)
                0x0000000000030000                . = ALIGN (0x8)

.preinit_array  0x0000000000030000        0x0
                0x0000000000030000                PROVIDE (__preinit_array_start, .)
 *(.preinit_array)
                0x0000000000030000                PROVIDE (__preinit_array_end, .)

.init_array     0x0000000000030000        0x0
                0x0000000000030000                PROVIDE (__init_array_start, .)
 *(SORT(.init_array.*))
 *(.init_array)
                0x0000000000030000                PROVIDE (__init_array_end, .)

.fini_array     0x0000000000030000        0x0
                0x0000000000030000                PROVIDE (__fini_array_start, .)
 *(.fini_array)
 *(SORT(.fini_array.*))
                0x0000000000030000                PROVIDE (__fini_array_end, .)

.ctors          0x0000000000030000       0x28
 *crtbegin.o(.ctors)
 .ctors         0x0000000000030000        0x8 c:/psdk3v2/ps3dev/ppu/bin/../lib/gcc/powerpc64-ps3-elf/4.5.2/crtbegin.o
 *crtbegin?.o(.ctors)
 *(EXCLUDE_FILE(*crtend?.o *crtend.o) .ctors)
 *(SORT(.ctors.*))
 .ctors.65430   0x0000000000030008        0x8 c:/psdk3v2/ps3dev/ppu/bin/../lib/gcc/powerpc64-ps3-elf/4.5.2/../../../../powerpc64-ps3-elf/lib\libc.a(lib_a-lock_internal.o)
 .ctors.65431   0x0000000000030010        0x8 c:/psdk3v2/ps3dev/ppu/bin/../lib/gcc/powerpc64-ps3-elf/4.5.2/../../../../powerpc64-ps3-elf/lib/lv2-crt0.o
 .ctors.65432   0x0000000000030018        0x8 c:/PSDK3v2/psl1ght/ppu/lib\librt.a(sbrk.o)
 *(.ctors)
 .ctors         0x0000000000030020        0x8 c:/psdk3v2/ps3dev/ppu/bin/../lib/gcc/powerpc64-ps3-elf/4.5.2/crtend.o

.dtors          0x0000000000030028       0x10
 *crtbegin.o(.dtors)
 .dtors         0x0000000000030028        0x8 c:/psdk3v2/ps3dev/ppu/bin/../lib/gcc/powerpc64-ps3-elf/4.5.2/crtbegin.o
 *crtbegin?.o(.dtors)
 *(EXCLUDE_FILE(*crtend?.o *crtend.o) .dtors)
 *(SORT(.dtors.*))
 *(.dtors)
 .dtors         0x0000000000030030        0x8 c:/psdk3v2/ps3dev/ppu/bin/../lib/gcc/powerpc64-ps3-elf/4.5.2/crtend.o
                0x0000000000030030                __DTOR_END__

.jcr            0x0000000000030038        0x8
 *(.jcr)
 .jcr           0x0000000000030038        0x0 c:/psdk3v2/ps3dev/ppu/bin/../lib/gcc/powerpc64-ps3-elf/4.5.2/crtbegin.o
 .jcr           0x0000000000030038        0x8 c:/psdk3v2/ps3dev/ppu/bin/../lib/gcc/powerpc64-ps3-elf/4.5.2/crtend.o

.data.rel.ro
 *(.data.rel.ro.local*)
 *(.data.rel.ro*)

.dynamic
 *(.dynamic)

.data.sceFStub  0x0000000000030040      0x1dc
 *(.data.sceFStub)
 *(SORT(.data.sceFStub.*))
 .data.sceFStub.sysPrxForUser
                0x0000000000030040      0x1dc c:/PSDK3v2/psl1ght/ppu/lib\liblv2.a(sprx.o)
                0x0000000000030040                sysGetSystemTime_stub
                0x0000000000030044                sysGetSystemSwVersion_stub
                0x0000000000030048                sysGetTemperature_stub
                0x000000000003004c                sysGetRandomNumber_stub
                0x0000000000030050                sysGetRtcStatus_stub
                0x0000000000030054                sysBoardStorageRead_stub
                0x0000000000030058                sysBoardStorageWrite_stub
                0x000000000003005c                sysProcessIsStack_stub
                0x0000000000030060                sysProcessExit_stub
                0x0000000000030064                sysProcessExitspawn_stub
                0x0000000000030068                sysProcessExitSpawn2Ex_stub
                0x000000000003006c                sysProcessExitSpawnWithLevel_stub
                0x0000000000030070                sysProcessAtExitSpawn_stub
                0x0000000000030074                sysProcess_At_ExitSpawn_stub
                0x0000000000030078                sysPrxRegisterLibrary_stub
                0x000000000003007c                sysPrxUnregisterLibrary_stub
                0x0000000000030080                sysPrxStartModule_stub
                0x0000000000030084                sysPrxStopModule_stub
                0x0000000000030088                sysPrxLoadModule_stub
                0x000000000003008c                sysPrxLoadModuleByFd_stub
                0x0000000000030090                sysPrxLoadModuleList_stub
                0x0000000000030094                sysPrxLoadModuleListOnMemcontainer_stub
                0x0000000000030098                sysPrxLoadModuleOnMemcontainer_stub
                0x000000000003009c                sysPrxLoadModuleOnMemcontainerByFd_stub
                0x00000000000300a0                sysPrxGetModuleInfo_stub
                0x00000000000300a4                sysPrxGetModuleList_stub
                0x00000000000300a8                sysPrxGetModuleId_stub
                0x00000000000300ac                sysPrxGetModuleIdByAddress_stub
                0x00000000000300b0                sysPrxGetModuleIdByName_stub
                0x00000000000300b4                sysPrxUnloadModule_stub
                0x00000000000300b8                sysPrxExitSpawnWithLevel_stub
                0x00000000000300bc                sysThreadCreateEx_stub
                0x00000000000300c0                sysThreadExit_stub
                0x00000000000300c4                sysThreadGetId_stub
                0x00000000000300c8                sysThreadOnce_stub
                0x00000000000300cc                sysThreadInitialzeTLS_stub
                0x00000000000300d0                sysThreadRegisterAtexit_stub
                0x00000000000300d4                sysThreadUnregisterAtexit_stub
                0x00000000000300d8                sysInterruptThreadDisestablish_stub
                0x00000000000300dc                sysLwMutexCreate_stub
                0x00000000000300e0                sysLwMutexDestroy_stub
                0x00000000000300e4                sysLwMutexLock_stub
                0x00000000000300e8                sysLwMutexTryLock_stub
                0x00000000000300ec                sysLwMutexUnlock_stub
                0x00000000000300f0                sysLwCondCreate_stub
                0x00000000000300f4                sysLwCondWait_stub
                0x00000000000300f8                sysLwCondSignal_stub
                0x00000000000300fc                sysLwCondSignalTo_stub
                0x0000000000030100                sysLwCondSignalAll_stub
                0x0000000000030104                sysLwCondDestroy_stub
                0x0000000000030108                sysSpinlockInitialize_stub
                0x000000000003010c                sysSpinlockLock_stub
                0x0000000000030110                sysSpinlockTryLock_stub
                0x0000000000030114                sysSpinlockUnlock_stub
                0x0000000000030118                sysWatchdogClear_stub
                0x000000000003011c                sysWatchdogStart_stub
                0x0000000000030120                sysWatchdogStop_stub
                0x0000000000030124                sysMalloc_stub
                0x0000000000030128                sysMemalign_stub
                0x000000000003012c                sysMemchr_stub
                0x0000000000030130                sysMemcmp_stub
                0x0000000000030134                sysMemcpy_stub
                0x0000000000030138                sysMemmove_stub
                0x000000000003013c                sysMemset_stub
                0x0000000000030140                sysFree_stub
                0x0000000000030144                sysHeapAllocHeapMemory_stub
                0x0000000000030148                sysHeapCreateHeap_stub
                0x000000000003014c                sysHeapDeleteHeap_stub
                0x0000000000030150                sysHeapFree_stub
                0x0000000000030154                sysHeapGetMallInfo_stub
                0x0000000000030158                sysHeapGetTotalFreeSize_stub
                0x000000000003015c                sysHeapMalloc_stub
                0x0000000000030160                sysHeapMemalign_stub
                0x0000000000030164                sysHeapStats_stub
                0x0000000000030168                sysQsort_stub
                0x000000000003016c                sysMempoolCreate_stub
                0x0000000000030170                sysMempoolDestroy_stub
                0x0000000000030174                sysMempoolGetCount_stub
                0x0000000000030178                sysMempoolAllocateBlock_stub
                0x000000000003017c                sysMempoolTryAllocateBlock_stub
                0x0000000000030180                sysMempoolFreeBlock_stub
                0x0000000000030184                sysMMapperFreeMemory_stub
                0x0000000000030188                sysMMapperMapMemory_stub
                0x000000000003018c                sysMMapperUnmapMemory_stub
                0x0000000000030190                sysMMapperAllocateMemory_stub
                0x0000000000030194                sysMMapperAllocateMemoryFromContainer_stub
                0x0000000000030198                sysStrlen_stub
                0x000000000003019c                sysStrcpy_stub
                0x00000000000301a0                sysStrncpy_stub
                0x00000000000301a4                sysStrcat_stub
                0x00000000000301a8                sysStrncat_stub
                0x00000000000301ac                sysStrchr_stub
                0x00000000000301b0                sysStrrchr_stub
                0x00000000000301b4                sysStrcmp_stub
                0x00000000000301b8                sysStrncmp_stub
                0x00000000000301bc                sysStrncasecmp_stub
                0x00000000000301c0                sysToLower_stub
                0x00000000000301c4                sysToUpper_stub
                0x00000000000301c8                sysSpuElfGetSegments_stub
                0x00000000000301cc                sysSpuElfGetInformation_stub
                0x00000000000301d0                sysSpuRawLoad_stub
                0x00000000000301d4                sysSpuRawImageLoad_stub
                0x00000000000301d8                sysSpuImageClose_stub
                0x00000000000301dc                sysSpuImageImport_stub
                0x00000000000301e0                sysSpuPrintfAttachGroup_stub
                0x00000000000301e4                sysSpuPrintfAttachThread_stub
                0x00000000000301e8                sysSpuPrintfDetachGroup_stub
                0x00000000000301ec                sysSpuPrintfDetach_Tread_stub
                0x00000000000301f0                sysSpuPrintfFinalize_stub
                0x00000000000301f4                sysSpuPrintfInitialize_stub
                0x00000000000301f8                sysConsoleGetc_stub
                0x00000000000301fc                sysConsolePutc_stub
                0x0000000000030200                sysConsoleWrite_stub
                0x0000000000030204                sysPrintf_stub
                0x0000000000030208                sysSprintf_stub
                0x000000000003020c                sysSnprintf_stub
                0x0000000000030210                sysVprintf_stub
                0x0000000000030214                sysVsprintf_stub
                0x0000000000030218                sysVsnprintf_stub

.toc1
 *(.toc1)

.opd            0x0000000000030220     0x2040
 *(.opd)
 .opd           0x0000000000030220       0x30 c:/psdk3v2/ps3dev/ppu/bin/../lib/gcc/powerpc64-ps3-elf/4.5.2/../../../../powerpc64-ps3-elf/lib/lv2-crti.o
                0x0000000000030220                _init
                0x0000000000030238                _fini
 .opd           0x0000000000030250       0x30 c:/psdk3v2/ps3dev/ppu/bin/../lib/gcc/powerpc64-ps3-elf/4.5.2/crtbegin.o
 .opd           0x0000000000030280       0x48 c:/psdk3v2/ps3dev/ppu/bin/../lib/gcc/powerpc64-ps3-elf/4.5.2/../../../../powerpc64-ps3-elf/lib/lv2-crt0.o
                0x00000000000302b0                _initialize
 .opd           0x00000000000302c8       0x30 loader.o
                0x00000000000302c8                is_payload_loaded
                0x00000000000302e0                main
 .opd           0x00000000000302f8      0x150 syscall8.o
                0x00000000000302f8                sys8_disable
                0x0000000000030310                sys8_enable
                0x0000000000030328                sys8_memcpy
                0x0000000000030340                sys8_memcpyinstr
                0x0000000000030358                sys8_pokeinstr
                0x0000000000030370                sys8_memset
                0x0000000000030388                sys8_call
                0x00000000000303a0                sys8_alloc
                0x00000000000303b8                sys8_free
                0x00000000000303d0                sys8_panic
                0x00000000000303e8                sys8_perm_mode
                0x0000000000030400                sys8_sys_configure
                0x0000000000030418                sys8_lv1_syscall
                0x0000000000030430                sys8_path_table
 .opd           0x0000000000030448       0x18 c:/PSDK3v2/psl1ght/ppu/lib\liblv2.a(process_wrapper.o)
                0x0000000000030448                sysProcessExitSpawn2
 .opd           0x0000000000030460      0xb28 c:/PSDK3v2/psl1ght/ppu/lib\liblv2.a(sprx.o)
                0x0000000000030460                sysGetSystemTime
                0x0000000000030478                sysGetSystemSwVersion
                0x0000000000030490                sysGetTemperature
                0x00000000000304a8                sysGetRandomNumber
                0x00000000000304c0                sysGetRtcStatus
                0x00000000000304d8                sysBoardStorageRead
                0x00000000000304f0                sysBoardStorageWrite
                0x0000000000030508                sysProcessIsStack
                0x0000000000030520                sysProcessExit
                0x0000000000030538                sysProcessExitspawn
                0x0000000000030550                sysProcessExitSpawn2Ex
                0x0000000000030568                sysProcessExitSpawnWithLevel
                0x0000000000030580                sysProcessAtExitSpawn
                0x0000000000030598                sysProcess_At_ExitSpawn
                0x00000000000305b0                sysPrxRegisterLibrary
                0x00000000000305c8                sysPrxUnregisterLibrary
                0x00000000000305e0                sysPrxStartModule
                0x00000000000305f8                sysPrxStopModule
                0x0000000000030610                sysPrxLoadModule
                0x0000000000030628                sysPrxLoadModuleByFd
                0x0000000000030640                sysPrxLoadModuleList
                0x0000000000030658                sysPrxLoadModuleListOnMemcontainer
                0x0000000000030670                sysPrxLoadModuleOnMemcontainer
                0x0000000000030688                sysPrxLoadModuleOnMemcontainerByFd
                0x00000000000306a0                sysPrxGetModuleInfo
                0x00000000000306b8                sysPrxGetModuleList
                0x00000000000306d0                sysPrxGetModuleId
                0x00000000000306e8                sysPrxGetModuleIdByAddress
                0x0000000000030700                sysPrxGetModuleIdByName
                0x0000000000030718                sysPrxUnloadModule
                0x0000000000030730                sysPrxExitSpawnWithLevel
                0x0000000000030748                sysThreadCreateEx
                0x0000000000030760                sysThreadExit
                0x0000000000030778                sysThreadGetId
                0x0000000000030790                sysThreadOnce
                0x00000000000307a8                sysThreadInitialzeTLS
                0x00000000000307c0                sysThreadRegisterAtexit
                0x00000000000307d8                sysThreadUnregisterAtexit
                0x00000000000307f0                sysInterruptThreadDisestablish
                0x0000000000030808                sysLwMutexCreate
                0x0000000000030820                sysLwMutexDestroy
                0x0000000000030838                sysLwMutexLock
                0x0000000000030850                sysLwMutexTryLock
                0x0000000000030868                sysLwMutexUnlock
                0x0000000000030880                sysLwCondCreate
                0x0000000000030898                sysLwCondWait
                0x00000000000308b0                sysLwCondSignal
                0x00000000000308c8                sysLwCondSignalTo
                0x00000000000308e0                sysLwCondSignalAll
                0x00000000000308f8                sysLwCondDestroy
                0x0000000000030910                sysSpinlockInitialize
                0x0000000000030928                sysSpinlockLock
                0x0000000000030940                sysSpinlockTryLock
                0x0000000000030958                sysSpinlockUnlock
                0x0000000000030970                sysWatchdogClear
                0x0000000000030988                sysWatchdogStart
                0x00000000000309a0                sysWatchdogStop
                0x00000000000309b8                sysMalloc
                0x00000000000309d0                sysMemalign
                0x00000000000309e8                sysMemchr
                0x0000000000030a00                sysMemcmp
                0x0000000000030a18                sysMemcpy
                0x0000000000030a30                sysMemmove
                0x0000000000030a48                sysMemset
                0x0000000000030a60                sysFree
                0x0000000000030a78                sysHeapAllocHeapMemory
                0x0000000000030a90                sysHeapCreateHeap
                0x0000000000030aa8                sysHeapDeleteHeap
                0x0000000000030ac0                sysHeapFree
                0x0000000000030ad8                sysHeapGetMallInfo
                0x0000000000030af0                sysHeapGetTotalFreeSize
                0x0000000000030b08                sysHeapMalloc
                0x0000000000030b20                sysHeapMemalign
                0x0000000000030b38                sysHeapStats
                0x0000000000030b50                sysQsort
                0x0000000000030b68                sysMempoolCreate
                0x0000000000030b80                sysMempoolDestroy
                0x0000000000030b98                sysMempoolGetCount
                0x0000000000030bb0                sysMempoolAllocateBlock
                0x0000000000030bc8                sysMempoolTryAllocateBlock
                0x0000000000030be0                sysMempoolFreeBlock
                0x0000000000030bf8                sysMMapperFreeMemory
                0x0000000000030c10                sysMMapperMapMemory
                0x0000000000030c28                sysMMapperUnmapMemory
                0x0000000000030c40                sysMMapperAllocateMemory
                0x0000000000030c58                sysMMapperAllocateMemoryFromContainer
                0x0000000000030c70                sysStrlen
                0x0000000000030c88                sysStrcpy
                0x0000000000030ca0                sysStrncpy
                0x0000000000030cb8                sysStrcat
                0x0000000000030cd0                sysStrncat
                0x0000000000030ce8                sysStrchr
                0x0000000000030d00                sysStrrchr
                0x0000000000030d18                sysStrcmp
                0x0000000000030d30                sysStrncmp
                0x0000000000030d48                sysStrncasecmp
                0x0000000000030d60                sysToLower
                0x0000000000030d78                sysToUpper
                0x0000000000030d90                sysSpuElfGetSegments
                0x0000000000030da8                sysSpuElfGetInformation
                0x0000000000030dc0                sysSpuRawLoad
                0x0000000000030dd8                sysSpuRawImageLoad
                0x0000000000030df0                sysSpuImageClose
                0x0000000000030e08                sysSpuImageImport
                0x0000000000030e20                sysSpuPrintfAttachGroup
                0x0000000000030e38                sysSpuPrintfAttachThread
                0x0000000000030e50                sysSpuPrintfDetachGroup
                0x0000000000030e68                sysSpuPrintfDetach_Tread
                0x0000000000030e80                sysSpuPrintfFinalize
                0x0000000000030e98                sysSpuPrintfInitialize
                0x0000000000030eb0                sysConsoleGetc
                0x0000000000030ec8                sysConsolePutc
                0x0000000000030ee0                sysConsoleWrite
                0x0000000000030ef8                sysPrintf
                0x0000000000030f10                sysSprintf
                0x0000000000030f28                sysSnprintf
                0x0000000000030f40                sysVprintf
                0x0000000000030f58                sysVsprintf
                0x0000000000030f70                sysVsnprintf
 .opd           0x0000000000030f88       0x18 c:/psdk3v2/ps3dev/ppu/bin/../lib/gcc/powerpc64-ps3-elf/4.5.2/../../../../powerpc64-ps3-elf/lib\libc.a(lib_a-exit.o)
                0x0000000000030f88                exit
 .opd           0x0000000000030fa0       0x30 c:/psdk3v2/ps3dev/ppu/bin/../lib/gcc/powerpc64-ps3-elf/4.5.2/../../../../powerpc64-ps3-elf/lib\libc.a(lib_a-malloc.o)
                0x0000000000030fa0                malloc
                0x0000000000030fb8                free
 .opd           0x0000000000030fd0       0x18 c:/psdk3v2/ps3dev/ppu/bin/../lib/gcc/powerpc64-ps3-elf/4.5.2/../../../../powerpc64-ps3-elf/lib\libc.a(lib_a-mallocr.o)
                0x0000000000030fd0                _malloc_r
 .opd           0x0000000000030fe8       0x30 c:/psdk3v2/ps3dev/ppu/bin/../lib/gcc/powerpc64-ps3-elf/4.5.2/../../../../powerpc64-ps3-elf/lib\libc.a(lib_a-mlock.o)
                0x0000000000030fe8                __malloc_lock
                0x0000000000031000                __malloc_unlock
 .opd           0x0000000000031018       0x18 c:/psdk3v2/ps3dev/ppu/bin/../lib/gcc/powerpc64-ps3-elf/4.5.2/../../../../powerpc64-ps3-elf/lib\libc.a(lib_a-strcpy.o)
                0x0000000000031018                strcpy
 .opd           0x0000000000031030       0x18 c:/psdk3v2/ps3dev/ppu/bin/../lib/gcc/powerpc64-ps3-elf/4.5.2/../../../../powerpc64-ps3-elf/lib\libc.a(lib_a-strlen.o)
                0x0000000000031030                strlen
 .opd           0x0000000000031048       0x18 c:/psdk3v2/ps3dev/ppu/bin/../lib/gcc/powerpc64-ps3-elf/4.5.2/../../../../powerpc64-ps3-elf/lib\libc.a(lib_a-strncmp.o)
                0x0000000000031048                strncmp
 .opd           0x0000000000031060       0x18 c:/psdk3v2/ps3dev/ppu/bin/../lib/gcc/powerpc64-ps3-elf/4.5.2/../../../../powerpc64-ps3-elf/lib\libc.a(lib_a-__call_atexit.o)
                0x0000000000031060                __call_exitprocs
 .opd           0x0000000000031078       0x30 c:/psdk3v2/ps3dev/ppu/bin/../lib/gcc/powerpc64-ps3-elf/4.5.2/../../../../powerpc64-ps3-elf/lib\libc.a(lib_a-freer.o)
                0x0000000000031078                _malloc_trim_r
                0x0000000000031090                _free_r
 .opd           0x00000000000310a8       0x18 c:/psdk3v2/ps3dev/ppu/bin/../lib/gcc/powerpc64-ps3-elf/4.5.2/../../../../powerpc64-ps3-elf/lib\libc.a(lib_a-getreent.o)
                0x00000000000310a8                __getreent
 .opd           0x00000000000310c0       0x78 c:/psdk3v2/ps3dev/ppu/bin/../lib/gcc/powerpc64-ps3-elf/4.5.2/../../../../powerpc64-ps3-elf/lib\libc.a(lib_a-lock_recursive.o)
                0x00000000000310c0                __libc_lock_init_recursive
                0x00000000000310d8                __libc_lock_close_recursive
                0x00000000000310f0                __libc_lock_acquire_recursive
                0x0000000000031108                __libc_lock_try_acquire_recursive
                0x0000000000031120                __libc_lock_release_recursive
 .opd           0x0000000000031138       0x18 c:/psdk3v2/ps3dev/ppu/bin/../lib/gcc/powerpc64-ps3-elf/4.5.2/../../../../powerpc64-ps3-elf/lib\libc.a(lib_a-memset.o)
                0x0000000000031138                memset
 .opd           0x0000000000031150       0x18 c:/psdk3v2/ps3dev/ppu/bin/../lib/gcc/powerpc64-ps3-elf/4.5.2/../../../../powerpc64-ps3-elf/lib\libc.a(lib_a-__atexit.o)
                0x0000000000031150                __register_exitproc
 .opd           0x0000000000031168       0x30 c:/psdk3v2/ps3dev/ppu/bin/../lib/gcc/powerpc64-ps3-elf/4.5.2/../../../../powerpc64-ps3-elf/lib\libc.a(lib_a-lock_internal.o)
                0x0000000000031180                __libc_auto_lock_allocate
 .opd           0x0000000000031198       0x18 c:/psdk3v2/ps3dev/ppu/bin/../lib/gcc/powerpc64-ps3-elf/4.5.2/../../../../powerpc64-ps3-elf/lib\libc.a(lib_a-abort.o)
                0x0000000000031198                abort
 .opd           0x00000000000311b0       0xc0 c:/psdk3v2/ps3dev/ppu/bin/../lib/gcc/powerpc64-ps3-elf/4.5.2/../../../../powerpc64-ps3-elf/lib\libc.a(lib_a-signal.o)
                0x00000000000311b0                _init_signal_r
                0x00000000000311c8                _signal_r
                0x00000000000311e0                _raise_r
                0x00000000000311f8                __sigtramp_r
                0x0000000000031210                raise
                0x0000000000031228                signal
                0x0000000000031240                _init_signal
                0x0000000000031258                __sigtramp
 .opd           0x0000000000031270       0x48 c:/PSDK3v2/psl1ght/ppu/lib\librt.a(sbrk.o)
                0x00000000000312a0                __librt_sbrk_r
 .opd           0x00000000000312b8       0x18 c:/PSDK3v2/psl1ght/ppu/lib\librt.a(exit.o)
                0x00000000000312b8                __librt_exit
 .opd           0x00000000000312d0       0x18 c:/PSDK3v2/psl1ght/ppu/lib\librt.a(close.o)
                0x00000000000312d0                __librt_close_r
 .opd           0x00000000000312e8       0x30 c:/PSDK3v2/psl1ght/ppu/lib\librt.a(lseek.o)
                0x00000000000312e8                __librt_lseek_r
                0x0000000000031300                __librt_lseek64_r
 .opd           0x0000000000031318       0x18 c:/PSDK3v2/psl1ght/ppu/lib\librt.a(read.o)
                0x0000000000031318                __librt_read_r
 .opd           0x0000000000031330       0x18 c:/PSDK3v2/psl1ght/ppu/lib\librt.a(open.o)
                0x0000000000031330                __librt_open_r
 .opd           0x0000000000031348       0x30 c:/PSDK3v2/psl1ght/ppu/lib\librt.a(sleep.o)
                0x0000000000031348                __librt_usleep_r
                0x0000000000031360                __librt_sleep_r
 .opd           0x0000000000031378       0x18 c:/PSDK3v2/psl1ght/ppu/lib\librt.a(write.o)
                0x0000000000031378                __librt_write_r
 .opd           0x0000000000031390       0x60 c:/PSDK3v2/psl1ght/ppu/lib\librt.a(fstat.o)
                0x0000000000031390                __librt_fstat_r
                0x00000000000313a8                __librt_fstat64_r
                0x00000000000313c0                __librt_stat_r
                0x00000000000313d8                __librt_stat64_r
 .opd           0x00000000000313f0      0x150 c:/PSDK3v2/psl1ght/ppu/lib\librt.a(socket.o)
                0x00000000000313f0                accept
                0x0000000000031408                bind
                0x0000000000031420                connect
                0x0000000000031438                listen
                0x0000000000031450                socket
                0x0000000000031468                send
                0x0000000000031480                sendto
                0x0000000000031498                recv
                0x00000000000314b0                recvfrom
                0x00000000000314c8                shutdown
                0x00000000000314e0                inet_aton
                0x00000000000314f8                inet_pton
                0x0000000000031510                select
                0x0000000000031528                closesocket
 .opd           0x0000000000031540       0x78 c:/PSDK3v2/psl1ght/ppu/lib\librt.a(lock.o)
                0x0000000000031540                __librt_sys_lwmutex_create_r
                0x0000000000031558                __librt_sys_lwmutex_destroy_r
                0x0000000000031570                __librt_sys_lwmutex_lock_r
                0x0000000000031588                __librt_sys_lwmutex_trylock_r
                0x00000000000315a0                __librt_sys_lwmutex_unlock_r
 .opd           0x00000000000315b8       0xc0 c:/PSDK3v2/psl1ght/ppu/lib\librt.a(dirent.o)
                0x00000000000315d0                __librt_opendir_r
                0x00000000000315e8                __librt_readdir_r
                0x0000000000031600                __librt_readdir_r_r
                0x0000000000031618                __librt_closedir_r
                0x0000000000031630                __librt_telldir_r
                0x0000000000031648                __librt_rewinddir_r
                0x0000000000031660                __librt_seekdir_r
 .opd           0x0000000000031678       0x18 c:/PSDK3v2/psl1ght/ppu/lib\librt.a(mkdir.o)
                0x0000000000031678                __librt_mkdir_r
 .opd           0x0000000000031690       0x18 c:/PSDK3v2/psl1ght/ppu/lib\librt.a(times.o)
                0x0000000000031690                __librt_times_r
 .opd           0x00000000000316a8       0x18 c:/PSDK3v2/psl1ght/ppu/lib\librt.a(umask.o)
                0x00000000000316a8                __librt_umask_r
 .opd           0x00000000000316c0       0x48 c:/PSDK3v2/psl1ght/ppu/lib\librt.a(lv2errno.o)
                0x00000000000316c0                lv2error
                0x00000000000316d8                lv2errno
                0x00000000000316f0                lv2errno_r
 .opd           0x0000000000031708       0x60 c:/PSDK3v2/psl1ght/ppu/lib\librt.a(heap.o)
                0x0000000000031708                heapInit
                0x0000000000031720                heapAllocate
                0x0000000000031738                heapAllocateAligned
                0x0000000000031750                heapFree
 .opd           0x0000000000031768       0x18 c:/PSDK3v2/psl1ght/ppu/lib\librt.a(chmod.o)
                0x0000000000031768                __librt_chmod_r
 .opd           0x0000000000031780       0x18 c:/PSDK3v2/psl1ght/ppu/lib\librt.a(rmdir.o)
                0x0000000000031780                __librt_rmdir_r
 .opd           0x0000000000031798       0x18 c:/PSDK3v2/psl1ght/ppu/lib\librt.a(isatty.o)
                0x0000000000031798                __librt_isatty_r
 .opd           0x00000000000317b0       0x18 c:/PSDK3v2/psl1ght/ppu/lib\librt.a(gettod.o)
                0x00000000000317b0                __librt_gettod_r
 .opd           0x00000000000317c8       0x18 c:/PSDK3v2/psl1ght/ppu/lib\librt.a(settod.o)
                0x00000000000317c8                __librt_settod_r
 .opd           0x00000000000317e0       0x18 c:/psdk3v2/ps3dev/ppu/bin/../lib/gcc/powerpc64-ps3-elf/4.5.2/../../../../powerpc64-ps3-elf/lib\libsysbase.a(sbrk.o)
                0x00000000000317e0                _sbrk_r
 .opd           0x00000000000317f8       0x18 c:/psdk3v2/ps3dev/ppu/bin/../lib/gcc/powerpc64-ps3-elf/4.5.2/../../../../powerpc64-ps3-elf/lib\libsysbase.a(_exit.o)
                0x00000000000317f8                _exit
 .opd           0x0000000000031810       0x78 c:/psdk3v2/ps3dev/ppu/bin/../lib/gcc/powerpc64-ps3-elf/4.5.2/../../../../powerpc64-ps3-elf/lib\libsysbase.a(lock.o)
                0x0000000000031810                sys_lwmutex_create
                0x0000000000031828                sys_lwmutex_destroy
                0x0000000000031840                sys_lwmutex_lock
                0x0000000000031858                sys_lwmutex_trylock
                0x0000000000031870                sys_lwmutex_unlock
 .opd           0x0000000000031888       0x18 c:/psdk3v2/ps3dev/ppu/bin/../lib/gcc/powerpc64-ps3-elf/4.5.2/../../../../powerpc64-ps3-elf/lib\libsysbase.a(getpid.o)
                0x0000000000031888                _getpid_r
 .opd           0x00000000000318a0       0x18 c:/psdk3v2/ps3dev/ppu/bin/../lib/gcc/powerpc64-ps3-elf/4.5.2/../../../../powerpc64-ps3-elf/lib\libsysbase.a(kill.o)
                0x00000000000318a0                _kill_r
 .opd           0x00000000000318b8       0x18 c:/psdk3v2/ps3dev/ppu/bin/../lib/gcc/powerpc64-ps3-elf/4.5.2/../../../../powerpc64-ps3-elf/lib\libc.a(lib_a-errno.o)
                0x00000000000318b8                __errno
 .opd           0x00000000000318d0       0x30 c:/psdk3v2/ps3dev/ppu/bin/../lib/gcc/powerpc64-ps3-elf/4.5.2/../../../../powerpc64-ps3-elf/lib\libc.a(lib_a-sscanf.o)
                0x00000000000318d0                sscanf
                0x00000000000318e8                _sscanf_r
 .opd           0x0000000000031900       0x78 c:/psdk3v2/ps3dev/ppu/bin/../lib/gcc/powerpc64-ps3-elf/4.5.2/../../../../powerpc64-ps3-elf/lib\libc.a(lib_a-stdio.o)
                0x0000000000031900                __sread
                0x0000000000031918                __seofread
                0x0000000000031930                __swrite
                0x0000000000031948                __sseek
                0x0000000000031960                __sclose
 .opd           0x0000000000031978       0x18 c:/psdk3v2/ps3dev/ppu/bin/../lib/gcc/powerpc64-ps3-elf/4.5.2/../../../../powerpc64-ps3-elf/lib\libc.a(lib_a-strncpy.o)
                0x0000000000031978                strncpy
 .opd           0x0000000000031990       0x18 c:/psdk3v2/ps3dev/ppu/bin/../lib/gcc/powerpc64-ps3-elf/4.5.2/../../../../powerpc64-ps3-elf/lib\libc.a(lib_a-svfscanf.o)
                0x0000000000031990                __ssvfscanf_r
 .opd           0x00000000000319a8      0x138 c:/psdk3v2/ps3dev/ppu/bin/../lib/gcc/powerpc64-ps3-elf/4.5.2/../../../../powerpc64-ps3-elf/lib\libc.a(lib_a-findfp.o)
                0x00000000000319a8                _cleanup_r
                0x00000000000319f0                __sfmoreglue
                0x0000000000031a08                _cleanup
                0x0000000000031a20                __sfp_lock_acquire
                0x0000000000031a38                __sfp_lock_release
                0x0000000000031a50                __sinit_lock_acquire
                0x0000000000031a68                __sinit_lock_release
                0x0000000000031a80                __sinit
                0x0000000000031a98                __sfp
                0x0000000000031ab0                __fp_lock_all
                0x0000000000031ac8                __fp_unlock_all
 .opd           0x0000000000031ae0       0x30 c:/psdk3v2/ps3dev/ppu/bin/../lib/gcc/powerpc64-ps3-elf/4.5.2/../../../../powerpc64-ps3-elf/lib\libc.a(lib_a-fwalk.o)
                0x0000000000031ae0                _fwalk
                0x0000000000031af8                _fwalk_reent
 .opd           0x0000000000031b10       0x18 c:/psdk3v2/ps3dev/ppu/bin/../lib/gcc/powerpc64-ps3-elf/4.5.2/../../../../powerpc64-ps3-elf/lib\libc.a(lib_a-iswspace.o)
                0x0000000000031b10                iswspace
 .opd           0x0000000000031b28       0xc0 c:/psdk3v2/ps3dev/ppu/bin/../lib/gcc/powerpc64-ps3-elf/4.5.2/../../../../powerpc64-ps3-elf/lib\libc.a(lib_a-locale.o)
                0x0000000000031b28                _setlocale_r
                0x0000000000031b40                __locale_charset
                0x0000000000031b58                __locale_mb_cur_max
                0x0000000000031b70                __locale_msgcharset
                0x0000000000031b88                __locale_cjk_lang
                0x0000000000031ba0                _localeconv_r
                0x0000000000031bb8                setlocale
                0x0000000000031bd0                localeconv
 .opd           0x0000000000031be8       0x30 c:/psdk3v2/ps3dev/ppu/bin/../lib/gcc/powerpc64-ps3-elf/4.5.2/../../../../powerpc64-ps3-elf/lib\libc.a(lib_a-mbrtowc.o)
                0x0000000000031be8                _mbrtowc_r
                0x0000000000031c00                mbrtowc
 .opd           0x0000000000031c18       0x30 c:/psdk3v2/ps3dev/ppu/bin/../lib/gcc/powerpc64-ps3-elf/4.5.2/../../../../powerpc64-ps3-elf/lib\libc.a(lib_a-mbtowc_r.o)
                0x0000000000031c18                __ascii_mbtowc
                0x0000000000031c30                _mbtowc_r
 .opd           0x0000000000031c48       0x18 c:/psdk3v2/ps3dev/ppu/bin/../lib/gcc/powerpc64-ps3-elf/4.5.2/../../../../powerpc64-ps3-elf/lib\libc.a(lib_a-s_fpclassify.o)
                0x0000000000031c48                __fpclassifyd
 .opd           0x0000000000031c60       0x18 c:/psdk3v2/ps3dev/ppu/bin/../lib/gcc/powerpc64-ps3-elf/4.5.2/../../../../powerpc64-ps3-elf/lib\libc.a(lib_a-sccl.o)
                0x0000000000031c60                __sccl
 .opd           0x0000000000031c78       0x18 c:/psdk3v2/ps3dev/ppu/bin/../lib/gcc/powerpc64-ps3-elf/4.5.2/../../../../powerpc64-ps3-elf/lib\libc.a(lib_a-sf_nan.o)
                0x0000000000031c78                nanf
 .opd           0x0000000000031c90       0x30 c:/psdk3v2/ps3dev/ppu/bin/../lib/gcc/powerpc64-ps3-elf/4.5.2/../../../../powerpc64-ps3-elf/lib\libc.a(lib_a-sprintf.o)
                0x0000000000031c90                _sprintf_r
                0x0000000000031ca8                sprintf
 .opd           0x0000000000031cc0       0x18 c:/psdk3v2/ps3dev/ppu/bin/../lib/gcc/powerpc64-ps3-elf/4.5.2/../../../../powerpc64-ps3-elf/lib\libc.a(lib_a-strcmp.o)
                0x0000000000031cc0                strcmp
 .opd           0x0000000000031cd8       0x60 c:/psdk3v2/ps3dev/ppu/bin/../lib/gcc/powerpc64-ps3-elf/4.5.2/../../../../powerpc64-ps3-elf/lib\libc.a(lib_a-strtod.o)
                0x0000000000031cf0                _strtod_r
                0x0000000000031d08                strtod
                0x0000000000031d20                strtof
 .opd           0x0000000000031d38       0x30 c:/psdk3v2/ps3dev/ppu/bin/../lib/gcc/powerpc64-ps3-elf/4.5.2/../../../../powerpc64-ps3-elf/lib\libc.a(lib_a-strtol.o)
                0x0000000000031d38                _strtol_r
                0x0000000000031d50                strtol
 .opd           0x0000000000031d68       0x18 c:/psdk3v2/ps3dev/ppu/bin/../lib/gcc/powerpc64-ps3-elf/4.5.2/../../../../powerpc64-ps3-elf/lib\libc.a(lib_a-strtoll_r.o)
                0x0000000000031d68                _strtoll_r
 .opd           0x0000000000031d80       0x30 c:/psdk3v2/ps3dev/ppu/bin/../lib/gcc/powerpc64-ps3-elf/4.5.2/../../../../powerpc64-ps3-elf/lib\libc.a(lib_a-strtoul.o)
                0x0000000000031d80                _strtoul_r
                0x0000000000031d98                strtoul
 .opd           0x0000000000031db0       0x18 c:/psdk3v2/ps3dev/ppu/bin/../lib/gcc/powerpc64-ps3-elf/4.5.2/../../../../powerpc64-ps3-elf/lib\libc.a(lib_a-strtoull_r.o)
                0x0000000000031db0                _strtoull_r
 .opd           0x0000000000031dc8       0x60 c:/psdk3v2/ps3dev/ppu/bin/../lib/gcc/powerpc64-ps3-elf/4.5.2/../../../../powerpc64-ps3-elf/lib\libc.a(lib_a-svfiscanf.o)
                0x0000000000031dc8                _sungetc_r
                0x0000000000031de0                __ssrefill_r
                0x0000000000031df8                _sfread_r
                0x0000000000031e10                __ssvfiscanf_r
 .opd           0x0000000000031e28       0x18 c:/psdk3v2/ps3dev/ppu/bin/../lib/gcc/powerpc64-ps3-elf/4.5.2/../../../../powerpc64-ps3-elf/lib\libc.a(lib_a-svfprintf.o)
                0x0000000000031e28                _svfprintf_r
 .opd           0x0000000000031e40       0x48 c:/psdk3v2/ps3dev/ppu/bin/../lib/gcc/powerpc64-ps3-elf/4.5.2/../../../../powerpc64-ps3-elf/lib\libc.a(lib_a-ungetc.o)
                0x0000000000031e40                __submore
                0x0000000000031e58                _ungetc_r
                0x0000000000031e70                ungetc
 .opd           0x0000000000031e88       0x30 c:/psdk3v2/ps3dev/ppu/bin/../lib/gcc/powerpc64-ps3-elf/4.5.2/../../../../powerpc64-ps3-elf/lib\libc.a(lib_a-dtoa.o)
                0x0000000000031ea0                _dtoa_r
 .opd           0x0000000000031eb8       0x30 c:/psdk3v2/ps3dev/ppu/bin/../lib/gcc/powerpc64-ps3-elf/4.5.2/../../../../powerpc64-ps3-elf/lib\libc.a(lib_a-fclose.o)
                0x0000000000031eb8                _fclose_r
                0x0000000000031ed0                fclose
 .opd           0x0000000000031ee8       0x30 c:/psdk3v2/ps3dev/ppu/bin/../lib/gcc/powerpc64-ps3-elf/4.5.2/../../../../powerpc64-ps3-elf/lib\libc.a(lib_a-fflush.o)
                0x0000000000031ee8                _fflush_r
                0x0000000000031f00                fflush
 .opd           0x0000000000031f18       0x48 c:/psdk3v2/ps3dev/ppu/bin/../lib/gcc/powerpc64-ps3-elf/4.5.2/../../../../powerpc64-ps3-elf/lib\libc.a(lib_a-gdtoa-gethex.o)
                0x0000000000031f30                __hexdig_init
                0x0000000000031f48                __gethex
 .opd           0x0000000000031f60       0x18 c:/psdk3v2/ps3dev/ppu/bin/../lib/gcc/powerpc64-ps3-elf/4.5.2/../../../../powerpc64-ps3-elf/lib\libc.a(lib_a-gdtoa-hexnan.o)
                0x0000000000031f60                __hexnan
 .opd           0x0000000000031f78       0x18 c:/psdk3v2/ps3dev/ppu/bin/../lib/gcc/powerpc64-ps3-elf/4.5.2/../../../../powerpc64-ps3-elf/lib\libc.a(lib_a-memchr.o)
                0x0000000000031f78                memchr
 .opd           0x0000000000031f90       0x18 c:/psdk3v2/ps3dev/ppu/bin/../lib/gcc/powerpc64-ps3-elf/4.5.2/../../../../powerpc64-ps3-elf/lib\libc.a(lib_a-memcpy.o)
                0x0000000000031f90                memcpy
 .opd           0x0000000000031fa8      0x1c8 c:/psdk3v2/ps3dev/ppu/bin/../lib/gcc/powerpc64-ps3-elf/4.5.2/../../../../powerpc64-ps3-elf/lib\libc.a(lib_a-mprec.o)
                0x0000000000031fa8                _Balloc
                0x0000000000031fc0                _Bfree
                0x0000000000031fd8                __multadd
                0x0000000000031ff0                __s2b
                0x0000000000032008                __hi0bits
                0x0000000000032020                __lo0bits
                0x0000000000032038                __i2b
                0x0000000000032050                __multiply
                0x0000000000032068                __pow5mult
                0x0000000000032080                __lshift
                0x0000000000032098                __mcmp
                0x00000000000320b0                __mdiff
                0x00000000000320c8                __ulp
                0x00000000000320e0                __b2d
                0x00000000000320f8                __d2b
                0x0000000000032110                __ratio
                0x0000000000032128                _mprec_log10
                0x0000000000032140                __copybits
                0x0000000000032158                __any_on
 .opd           0x0000000000032170       0x18 c:/psdk3v2/ps3dev/ppu/bin/../lib/gcc/powerpc64-ps3-elf/4.5.2/../../../../powerpc64-ps3-elf/lib\libc.a(lib_a-reallocr.o)
                0x0000000000032170                _realloc_r
 .opd           0x0000000000032188       0x30 c:/psdk3v2/ps3dev/ppu/bin/../lib/gcc/powerpc64-ps3-elf/4.5.2/../../../../powerpc64-ps3-elf/lib\libc.a(lib_a-svfiprintf.o)
                0x0000000000032188                __ssprint_r
                0x00000000000321a0                _svfiprintf_r
 .opd           0x00000000000321b8       0x18 c:/psdk3v2/ps3dev/ppu/bin/../lib/gcc/powerpc64-ps3-elf/4.5.2/../../../../powerpc64-ps3-elf/lib\libc.a(lib_a-callocr.o)
                0x00000000000321b8                _calloc_r
 .opd           0x00000000000321d0       0x18 c:/psdk3v2/ps3dev/ppu/bin/../lib/gcc/powerpc64-ps3-elf/4.5.2/../../../../powerpc64-ps3-elf/lib\libc.a(lib_a-memmove.o)
                0x00000000000321d0                memmove
 .opd           0x00000000000321e8       0x18 c:/psdk3v2/ps3dev/ppu/bin/../lib/gcc/powerpc64-ps3-elf/4.5.2/../../../../powerpc64-ps3-elf/lib\libsysbase.a(close.o)
                0x00000000000321e8                _close_r
 .opd           0x0000000000032200       0x18 c:/psdk3v2/ps3dev/ppu/bin/../lib/gcc/powerpc64-ps3-elf/4.5.2/../../../../powerpc64-ps3-elf/lib\libsysbase.a(lseek.o)
                0x0000000000032200                _lseek_r
 .opd           0x0000000000032218       0x18 c:/psdk3v2/ps3dev/ppu/bin/../lib/gcc/powerpc64-ps3-elf/4.5.2/../../../../powerpc64-ps3-elf/lib\libsysbase.a(read.o)
                0x0000000000032218                _read_r
 .opd           0x0000000000032230       0x18 c:/psdk3v2/ps3dev/ppu/bin/../lib/gcc/powerpc64-ps3-elf/4.5.2/../../../../powerpc64-ps3-elf/lib\libsysbase.a(write.o)
                0x0000000000032230                _write_r
 .opd           0x0000000000032248       0x18 c:/psdk3v2/ps3dev/ppu/bin/../lib/gcc/powerpc64-ps3-elf/4.5.2/crtend.o

.branch_lt      0x0000000000032260        0x0
 *(.branch_lt)
 .branch_lt     0x0000000000032260        0x0 linker stubs

.got            0x0000000000032260      0x650
 *(.got .toc)
 .toc           0x0000000000032260       0x50 c:/psdk3v2/ps3dev/ppu/bin/../lib/gcc/powerpc64-ps3-elf/4.5.2/crtbegin.o
 .toc           0x00000000000322b0       0x28 c:/PSDK3v2/psl1ght/ppu/lib\librt.a(sbrk.o)
 .toc           0x00000000000322d8        0x8 c:/psdk3v2/ps3dev/ppu/bin/../lib/gcc/powerpc64-ps3-elf/4.5.2/crtend.o
 .toc           0x00000000000322e0      0x118 c:/psdk3v2/ps3dev/ppu/bin/../lib/gcc/powerpc64-ps3-elf/4.5.2/../../../../powerpc64-ps3-elf/lib/lv2-crt0.o
 .toc           0x00000000000323f8       0x28 loader.o
 .toc           0x0000000000032420        0x8 syscall8.o
 .toc           0x0000000000032428        0x8 c:/psdk3v2/ps3dev/ppu/bin/../lib/gcc/powerpc64-ps3-elf/4.5.2/../../../../powerpc64-ps3-elf/lib\libc.a(lib_a-exit.o)
 .toc           0x0000000000032430       0x30 c:/psdk3v2/ps3dev/ppu/bin/../lib/gcc/powerpc64-ps3-elf/4.5.2/../../../../powerpc64-ps3-elf/lib\libc.a(lib_a-mallocr.o)
 .toc           0x0000000000032460        0x8 c:/psdk3v2/ps3dev/ppu/bin/../lib/gcc/powerpc64-ps3-elf/4.5.2/../../../../powerpc64-ps3-elf/lib\libc.a(lib_a-mlock.o)
 .toc           0x0000000000032468       0x18 c:/psdk3v2/ps3dev/ppu/bin/../lib/gcc/powerpc64-ps3-elf/4.5.2/../../../../powerpc64-ps3-elf/lib\libc.a(lib_a-__call_atexit.o)
 .toc           0x0000000000032480       0x28 c:/psdk3v2/ps3dev/ppu/bin/../lib/gcc/powerpc64-ps3-elf/4.5.2/../../../../powerpc64-ps3-elf/lib\libc.a(lib_a-freer.o)
 .toc           0x00000000000324a8        0x8 c:/psdk3v2/ps3dev/ppu/bin/../lib/gcc/powerpc64-ps3-elf/4.5.2/../../../../powerpc64-ps3-elf/lib\libc.a(lib_a-getreent.o)
 .toc           0x00000000000324b0        0x8 c:/psdk3v2/ps3dev/ppu/bin/../lib/gcc/powerpc64-ps3-elf/4.5.2/../../../../powerpc64-ps3-elf/lib\libc.a(lib_a-lock_recursive.o)
 .toc           0x00000000000324b8       0x18 c:/psdk3v2/ps3dev/ppu/bin/../lib/gcc/powerpc64-ps3-elf/4.5.2/../../../../powerpc64-ps3-elf/lib\libc.a(lib_a-__atexit.o)
 .toc           0x00000000000324d0       0x10 c:/psdk3v2/ps3dev/ppu/bin/../lib/gcc/powerpc64-ps3-elf/4.5.2/../../../../powerpc64-ps3-elf/lib\libc.a(lib_a-lock_internal.o)
 .toc           0x00000000000324e0        0x8 c:/PSDK3v2/psl1ght/ppu/lib\librt.a(open.o)
 .toc           0x00000000000324e8        0x8 c:/PSDK3v2/psl1ght/ppu/lib\librt.a(socket.o)
 .toc           0x00000000000324f0        0x8 c:/PSDK3v2/psl1ght/ppu/lib\librt.a(mkdir.o)
 .toc           0x00000000000324f8        0x8 c:/PSDK3v2/psl1ght/ppu/lib\librt.a(umask.o)
 .toc           0x0000000000032500        0x8 c:/psdk3v2/ps3dev/ppu/bin/../lib/gcc/powerpc64-ps3-elf/4.5.2/../../../../powerpc64-ps3-elf/lib\libsysbase.a(sbrk.o)
 .toc           0x0000000000032508        0x8 c:/psdk3v2/ps3dev/ppu/bin/../lib/gcc/powerpc64-ps3-elf/4.5.2/../../../../powerpc64-ps3-elf/lib\libsysbase.a(_exit.o)
 .toc           0x0000000000032510        0x8 c:/psdk3v2/ps3dev/ppu/bin/../lib/gcc/powerpc64-ps3-elf/4.5.2/../../../../powerpc64-ps3-elf/lib\libsysbase.a(lock.o)
 .toc           0x0000000000032518        0x8 c:/psdk3v2/ps3dev/ppu/bin/../lib/gcc/powerpc64-ps3-elf/4.5.2/../../../../powerpc64-ps3-elf/lib\libsysbase.a(getpid.o)
 .toc           0x0000000000032520        0x8 c:/psdk3v2/ps3dev/ppu/bin/../lib/gcc/powerpc64-ps3-elf/4.5.2/../../../../powerpc64-ps3-elf/lib\libc.a(lib_a-sscanf.o)
 .toc           0x0000000000032528       0x40 c:/psdk3v2/ps3dev/ppu/bin/../lib/gcc/powerpc64-ps3-elf/4.5.2/../../../../powerpc64-ps3-elf/lib\libc.a(lib_a-svfscanf.o)
 .toc           0x0000000000032568       0x58 c:/psdk3v2/ps3dev/ppu/bin/../lib/gcc/powerpc64-ps3-elf/4.5.2/../../../../powerpc64-ps3-elf/lib\libc.a(lib_a-findfp.o)
 .toc           0x00000000000325c0        0x8 c:/psdk3v2/ps3dev/ppu/bin/../lib/gcc/powerpc64-ps3-elf/4.5.2/../../../../powerpc64-ps3-elf/lib\libc.a(lib_a-iswspace.o)
 .toc           0x00000000000325c8       0x38 c:/psdk3v2/ps3dev/ppu/bin/../lib/gcc/powerpc64-ps3-elf/4.5.2/../../../../powerpc64-ps3-elf/lib\libc.a(lib_a-locale.o)
 .toc           0x0000000000032600       0x10 c:/psdk3v2/ps3dev/ppu/bin/../lib/gcc/powerpc64-ps3-elf/4.5.2/../../../../powerpc64-ps3-elf/lib\libc.a(lib_a-mbrtowc.o)
 .toc           0x0000000000032610        0x8 c:/psdk3v2/ps3dev/ppu/bin/../lib/gcc/powerpc64-ps3-elf/4.5.2/../../../../powerpc64-ps3-elf/lib\libc.a(lib_a-mbtowc_r.o)
 .toc           0x0000000000032618        0x8 c:/psdk3v2/ps3dev/ppu/bin/../lib/gcc/powerpc64-ps3-elf/4.5.2/../../../../powerpc64-ps3-elf/lib\libc.a(lib_a-sf_nan.o)
 .toc           0x0000000000032620       0xb0 c:/psdk3v2/ps3dev/ppu/bin/../lib/gcc/powerpc64-ps3-elf/4.5.2/../../../../powerpc64-ps3-elf/lib\libc.a(lib_a-strtod.o)
 .toc           0x00000000000326d0        0x8 c:/psdk3v2/ps3dev/ppu/bin/../lib/gcc/powerpc64-ps3-elf/4.5.2/../../../../powerpc64-ps3-elf/lib\libc.a(lib_a-strtol.o)
 .toc           0x00000000000326d8        0x8 c:/psdk3v2/ps3dev/ppu/bin/../lib/gcc/powerpc64-ps3-elf/4.5.2/../../../../powerpc64-ps3-elf/lib\libc.a(lib_a-strtoll_r.o)
 .toc           0x00000000000326e0        0x8 c:/psdk3v2/ps3dev/ppu/bin/../lib/gcc/powerpc64-ps3-elf/4.5.2/../../../../powerpc64-ps3-elf/lib\libc.a(lib_a-strtoul.o)
 .toc           0x00000000000326e8        0x8 c:/psdk3v2/ps3dev/ppu/bin/../lib/gcc/powerpc64-ps3-elf/4.5.2/../../../../powerpc64-ps3-elf/lib\libc.a(lib_a-strtoull_r.o)
 .toc           0x00000000000326f0       0x30 c:/psdk3v2/ps3dev/ppu/bin/../lib/gcc/powerpc64-ps3-elf/4.5.2/../../../../powerpc64-ps3-elf/lib\libc.a(lib_a-svfiscanf.o)
 .toc           0x0000000000032720       0x60 c:/psdk3v2/ps3dev/ppu/bin/../lib/gcc/powerpc64-ps3-elf/4.5.2/../../../../powerpc64-ps3-elf/lib\libc.a(lib_a-svfprintf.o)
 .toc           0x0000000000032780       0x80 c:/psdk3v2/ps3dev/ppu/bin/../lib/gcc/powerpc64-ps3-elf/4.5.2/../../../../powerpc64-ps3-elf/lib\libc.a(lib_a-dtoa.o)
 .toc           0x0000000000032800       0x10 c:/psdk3v2/ps3dev/ppu/bin/../lib/gcc/powerpc64-ps3-elf/4.5.2/../../../../powerpc64-ps3-elf/lib\libc.a(lib_a-fflush.o)
 .toc           0x0000000000032810       0x20 c:/psdk3v2/ps3dev/ppu/bin/../lib/gcc/powerpc64-ps3-elf/4.5.2/../../../../powerpc64-ps3-elf/lib\libc.a(lib_a-gdtoa-gethex.o)
 .toc           0x0000000000032830        0x8 c:/psdk3v2/ps3dev/ppu/bin/../lib/gcc/powerpc64-ps3-elf/4.5.2/../../../../powerpc64-ps3-elf/lib\libc.a(lib_a-gdtoa-hexnan.o)
 .toc           0x0000000000032838       0x20 c:/psdk3v2/ps3dev/ppu/bin/../lib/gcc/powerpc64-ps3-elf/4.5.2/../../../../powerpc64-ps3-elf/lib\libc.a(lib_a-mprec.o)
 .toc           0x0000000000032858        0x8 c:/psdk3v2/ps3dev/ppu/bin/../lib/gcc/powerpc64-ps3-elf/4.5.2/../../../../powerpc64-ps3-elf/lib\libc.a(lib_a-reallocr.o)
 .toc           0x0000000000032860       0x30 c:/psdk3v2/ps3dev/ppu/bin/../lib/gcc/powerpc64-ps3-elf/4.5.2/../../../../powerpc64-ps3-elf/lib\libc.a(lib_a-svfiprintf.o)
 .toc           0x0000000000032890        0x8 c:/psdk3v2/ps3dev/ppu/bin/../lib/gcc/powerpc64-ps3-elf/4.5.2/../../../../powerpc64-ps3-elf/lib\libsysbase.a(close.o)
 .toc           0x0000000000032898        0x8 c:/psdk3v2/ps3dev/ppu/bin/../lib/gcc/powerpc64-ps3-elf/4.5.2/../../../../powerpc64-ps3-elf/lib\libsysbase.a(lseek.o)
 .toc           0x00000000000328a0        0x8 c:/psdk3v2/ps3dev/ppu/bin/../lib/gcc/powerpc64-ps3-elf/4.5.2/../../../../powerpc64-ps3-elf/lib\libsysbase.a(read.o)
 .toc           0x00000000000328a8        0x8 c:/psdk3v2/ps3dev/ppu/bin/../lib/gcc/powerpc64-ps3-elf/4.5.2/../../../../powerpc64-ps3-elf/lib\libsysbase.a(write.o)
 .toc           0x00000000000328b0        0x0 c:/PSDK3v2/psl1ght/ppu/lib\liblv2.a(process_wrapper.o)
 .got           0x00000000000328b0        0x0 c:/PSDK3v2/psl1ght/ppu/lib\liblv2.a(sprx.o)
 .toc           0x00000000000328b0        0x0 c:/psdk3v2/ps3dev/ppu/bin/../lib/gcc/powerpc64-ps3-elf/4.5.2/../../../../powerpc64-ps3-elf/lib\libsysbase.a(syscalls.o)
 .toc           0x00000000000328b0        0x0 c:/psdk3v2/ps3dev/ppu/bin/../lib/gcc/powerpc64-ps3-elf/4.5.2/../../../../powerpc64-ps3-elf/lib\libc.a(lib_a-impure.o)
 .toc           0x00000000000328b0        0x0 c:/psdk3v2/ps3dev/ppu/bin/../lib/gcc/powerpc64-ps3-elf/4.5.2/../../../../powerpc64-ps3-elf/lib\libc.a(lib_a-malloc.o)
 .toc           0x00000000000328b0        0x0 c:/psdk3v2/ps3dev/ppu/bin/../lib/gcc/powerpc64-ps3-elf/4.5.2/../../../../powerpc64-ps3-elf/lib\libc.a(lib_a-strcpy.o)
 .toc           0x00000000000328b0        0x0 c:/psdk3v2/ps3dev/ppu/bin/../lib/gcc/powerpc64-ps3-elf/4.5.2/../../../../powerpc64-ps3-elf/lib\libc.a(lib_a-strlen.o)
 .toc           0x00000000000328b0        0x0 c:/psdk3v2/ps3dev/ppu/bin/../lib/gcc/powerpc64-ps3-elf/4.5.2/../../../../powerpc64-ps3-elf/lib\libc.a(lib_a-strncmp.o)
 .toc           0x00000000000328b0        0x0 c:/psdk3v2/ps3dev/ppu/bin/../lib/gcc/powerpc64-ps3-elf/4.5.2/../../../../powerpc64-ps3-elf/lib\libc.a(lib_a-memset.o)
 .toc           0x00000000000328b0        0x0 c:/psdk3v2/ps3dev/ppu/bin/../lib/gcc/powerpc64-ps3-elf/4.5.2/../../../../powerpc64-ps3-elf/lib\libc.a(lib_a-abort.o)
 .toc           0x00000000000328b0        0x0 c:/psdk3v2/ps3dev/ppu/bin/../lib/gcc/powerpc64-ps3-elf/4.5.2/../../../../powerpc64-ps3-elf/lib\libc.a(lib_a-signal.o)
 .toc           0x00000000000328b0        0x0 c:/PSDK3v2/psl1ght/ppu/lib\librt.a(exit.o)
 .toc           0x00000000000328b0        0x0 c:/PSDK3v2/psl1ght/ppu/lib\librt.a(close.o)
 .toc           0x00000000000328b0        0x0 c:/PSDK3v2/psl1ght/ppu/lib\librt.a(lseek.o)
 .toc           0x00000000000328b0        0x0 c:/PSDK3v2/psl1ght/ppu/lib\librt.a(read.o)
 .toc           0x00000000000328b0        0x0 c:/PSDK3v2/psl1ght/ppu/lib\librt.a(sleep.o)
 .toc           0x00000000000328b0        0x0 c:/PSDK3v2/psl1ght/ppu/lib\librt.a(write.o)
 .toc           0x00000000000328b0        0x0 c:/PSDK3v2/psl1ght/ppu/lib\librt.a(fstat.o)
 .toc           0x00000000000328b0        0x0 c:/PSDK3v2/psl1ght/ppu/lib\librt.a(lock.o)
 .toc           0x00000000000328b0        0x0 c:/PSDK3v2/psl1ght/ppu/lib\librt.a(dirent.o)
 .toc           0x00000000000328b0        0x0 c:/PSDK3v2/psl1ght/ppu/lib\librt.a(times.o)
 .toc           0x00000000000328b0        0x0 c:/PSDK3v2/psl1ght/ppu/lib\librt.a(lv2errno.o)
 .toc           0x00000000000328b0        0x0 c:/PSDK3v2/psl1ght/ppu/lib\librt.a(heap.o)
 .toc           0x00000000000328b0        0x0 c:/PSDK3v2/psl1ght/ppu/lib\librt.a(chmod.o)
 .toc           0x00000000000328b0        0x0 c:/PSDK3v2/psl1ght/ppu/lib\librt.a(rmdir.o)
 .toc           0x00000000000328b0        0x0 c:/PSDK3v2/psl1ght/ppu/lib\librt.a(isatty.o)
 .toc           0x00000000000328b0        0x0 c:/PSDK3v2/psl1ght/ppu/lib\librt.a(gettod.o)
 .toc           0x00000000000328b0        0x0 c:/PSDK3v2/psl1ght/ppu/lib\librt.a(settod.o)
 .toc           0x00000000000328b0        0x0 c:/psdk3v2/ps3dev/ppu/bin/../lib/gcc/powerpc64-ps3-elf/4.5.2/../../../../powerpc64-ps3-elf/lib\libsysbase.a(kill.o)
 .toc           0x00000000000328b0        0x0 c:/psdk3v2/ps3dev/ppu/bin/../lib/gcc/powerpc64-ps3-elf/4.5.2/../../../../powerpc64-ps3-elf/lib\libc.a(lib_a-errno.o)
 .toc           0x00000000000328b0        0x0 c:/psdk3v2/ps3dev/ppu/bin/../lib/gcc/powerpc64-ps3-elf/4.5.2/../../../../powerpc64-ps3-elf/lib\libc.a(lib_a-stdio.o)
 .toc           0x00000000000328b0        0x0 c:/psdk3v2/ps3dev/ppu/bin/../lib/gcc/powerpc64-ps3-elf/4.5.2/../../../../powerpc64-ps3-elf/lib\libc.a(lib_a-strncpy.o)
 .toc           0x00000000000328b0        0x0 c:/psdk3v2/ps3dev/ppu/bin/../lib/gcc/powerpc64-ps3-elf/4.5.2/../../../../powerpc64-ps3-elf/lib\libc.a(lib_a-ctype_.o)
 .toc           0x00000000000328b0        0x0 c:/psdk3v2/ps3dev/ppu/bin/../lib/gcc/powerpc64-ps3-elf/4.5.2/../../../../powerpc64-ps3-elf/lib\libc.a(lib_a-fwalk.o)
 .toc           0x00000000000328b0        0x0 c:/psdk3v2/ps3dev/ppu/bin/../lib/gcc/powerpc64-ps3-elf/4.5.2/../../../../powerpc64-ps3-elf/lib\libc.a(lib_a-s_fpclassify.o)
 .toc           0x00000000000328b0        0x0 c:/psdk3v2/ps3dev/ppu/bin/../lib/gcc/powerpc64-ps3-elf/4.5.2/../../../../powerpc64-ps3-elf/lib\libc.a(lib_a-sccl.o)
 .toc           0x00000000000328b0        0x0 c:/psdk3v2/ps3dev/ppu/bin/../lib/gcc/powerpc64-ps3-elf/4.5.2/../../../../powerpc64-ps3-elf/lib\libc.a(lib_a-sprintf.o)
 .toc           0x00000000000328b0        0x0 c:/psdk3v2/ps3dev/ppu/bin/../lib/gcc/powerpc64-ps3-elf/4.5.2/../../../../powerpc64-ps3-elf/lib\libc.a(lib_a-strcmp.o)
 .toc           0x00000000000328b0        0x0 c:/psdk3v2/ps3dev/ppu/bin/../lib/gcc/powerpc64-ps3-elf/4.5.2/../../../../powerpc64-ps3-elf/lib\libc.a(lib_a-ungetc.o)
 .toc           0x00000000000328b0        0x0 c:/psdk3v2/ps3dev/ppu/bin/../lib/gcc/powerpc64-ps3-elf/4.5.2/../../../../powerpc64-ps3-elf/lib\libc.a(lib_a-fclose.o)
 .toc           0x00000000000328b0        0x0 c:/psdk3v2/ps3dev/ppu/bin/../lib/gcc/powerpc64-ps3-elf/4.5.2/../../../../powerpc64-ps3-elf/lib\libc.a(lib_a-memchr.o)
 .toc           0x00000000000328b0        0x0 c:/psdk3v2/ps3dev/ppu/bin/../lib/gcc/powerpc64-ps3-elf/4.5.2/../../../../powerpc64-ps3-elf/lib\libc.a(lib_a-memcpy.o)
 .toc           0x00000000000328b0        0x0 c:/psdk3v2/ps3dev/ppu/bin/../lib/gcc/powerpc64-ps3-elf/4.5.2/../../../../powerpc64-ps3-elf/lib\libc.a(lib_a-callocr.o)
 .toc           0x00000000000328b0        0x0 c:/psdk3v2/ps3dev/ppu/bin/../lib/gcc/powerpc64-ps3-elf/4.5.2/../../../../powerpc64-ps3-elf/lib\libc.a(lib_a-memmove.o)

.toc.sceStub
 *(.toc.sceStub)
 *(SORT(.toc.sceStub.*))

.tdata
 *(.tdata .tdata.* .gnu.linkonce.td.*)

.tbss           0x00000000000328b0      0x780
 *(.tbss .tbss.* .gnu.linkonce.tb.*)
 .tbss.t_reent  0x00000000000328b0      0x778 c:/psdk3v2/ps3dev/ppu/bin/../lib/gcc/powerpc64-ps3-elf/4.5.2/../../../../powerpc64-ps3-elf/lib\libc.a(lib_a-getreent.o)
 .tbss.t_reentp
                0x0000000000033028        0x8 c:/psdk3v2/ps3dev/ppu/bin/../lib/gcc/powerpc64-ps3-elf/4.5.2/../../../../powerpc64-ps3-elf/lib\libc.a(lib_a-getreent.o)
 *(.tcommon)
                0x0000000010000000                . = ALIGN (0x10000000)

.rodata         0x0000000010000000      0x498
 *(.rodata .rodata.* .gnu.linkonce.r.*)
 .rodata        0x0000000010000000       0x18 c:/psdk3v2/ps3dev/ppu/bin/../lib/gcc/powerpc64-ps3-elf/4.5.2/../../../../powerpc64-ps3-elf/lib/lv2-crt0.o
                0x0000000010000000                _start
 .rodata.str1.8
                0x0000000010000018       0x2a loader.o
 *fill*         0x0000000010000042        0x6 00
 .rodata.str1.8
                0x0000000010000048        0x2 c:/psdk3v2/ps3dev/ppu/bin/../lib/gcc/powerpc64-ps3-elf/4.5.2/../../../../powerpc64-ps3-elf/lib\libc.a(lib_a-impure.o)
 *fill*         0x000000001000004a        0x6 00
 .rodata._global_impure_ptr
                0x0000000010000050        0x8 c:/psdk3v2/ps3dev/ppu/bin/../lib/gcc/powerpc64-ps3-elf/4.5.2/../../../../powerpc64-ps3-elf/lib\libc.a(lib_a-impure.o)
                0x0000000010000050                _global_impure_ptr
 .rodata.str1.8
                0x0000000000000000        0x2 c:/psdk3v2/ps3dev/ppu/bin/../lib/gcc/powerpc64-ps3-elf/4.5.2/../../../../powerpc64-ps3-elf/lib\libc.a(lib_a-getreent.o)
 .rodata.__libc_lock_attributes
                0x0000000010000058       0x10 c:/psdk3v2/ps3dev/ppu/bin/../lib/gcc/powerpc64-ps3-elf/4.5.2/../../../../powerpc64-ps3-elf/lib\libc.a(lib_a-lock_recursive.o)
 .rodata.__libc_lock_attributes
                0x0000000010000068       0x10 c:/psdk3v2/ps3dev/ppu/bin/../lib/gcc/powerpc64-ps3-elf/4.5.2/../../../../powerpc64-ps3-elf/lib\libc.a(lib_a-lock_internal.o)
 .rodata.str1.8
                0x0000000010000078        0xc c:/PSDK3v2/psl1ght/ppu/lib\librt.a(socket.o)
 .rodata.basefix.4341
                0x0000000010000084       0x22 c:/psdk3v2/ps3dev/ppu/bin/../lib/gcc/powerpc64-ps3-elf/4.5.2/../../../../powerpc64-ps3-elf/lib\libc.a(lib_a-svfscanf.o)
 *fill*         0x00000000100000a6        0x2 00
 .rodata.str1.8
                0x00000000100000a8        0x5 c:/psdk3v2/ps3dev/ppu/bin/../lib/gcc/powerpc64-ps3-elf/4.5.2/../../../../powerpc64-ps3-elf/lib\libc.a(lib_a-svfscanf.o)
 *fill*         0x00000000100000ad        0x3 00
 .rodata._ctype_
                0x00000000100000b0      0x101 c:/psdk3v2/ps3dev/ppu/bin/../lib/gcc/powerpc64-ps3-elf/4.5.2/../../../../powerpc64-ps3-elf/lib\libc.a(lib_a-ctype_.o)
                0x00000000100000b0                _ctype_
 *fill*         0x00000000100001b1        0x7 00
 .rodata.str1.8
                0x00000000100001b8        0xa c:/psdk3v2/ps3dev/ppu/bin/../lib/gcc/powerpc64-ps3-elf/4.5.2/../../../../powerpc64-ps3-elf/lib\libc.a(lib_a-locale.o)
                                         0x1a (size before relaxing)
 .rodata.str1.8
                0x0000000000000000        0x1 c:/psdk3v2/ps3dev/ppu/bin/../lib/gcc/powerpc64-ps3-elf/4.5.2/../../../../powerpc64-ps3-elf/lib\libc.a(lib_a-mbrtowc.o)
 *fill*         0x00000000100001c2        0x2 00
 .rodata.cst4   0x00000000100001c4        0x4 c:/psdk3v2/ps3dev/ppu/bin/../lib/gcc/powerpc64-ps3-elf/4.5.2/../../../../powerpc64-ps3-elf/lib\libc.a(lib_a-sf_nan.o)
 .rodata.cst4   0x00000000100001c8       0x14 c:/psdk3v2/ps3dev/ppu/bin/../lib/gcc/powerpc64-ps3-elf/4.5.2/../../../../powerpc64-ps3-elf/lib\libc.a(lib_a-strtod.o)
 *fill*         0x00000000100001dc        0x4 00
 .rodata.cst8   0x00000000100001e0       0x28 c:/psdk3v2/ps3dev/ppu/bin/../lib/gcc/powerpc64-ps3-elf/4.5.2/../../../../powerpc64-ps3-elf/lib\libc.a(lib_a-strtod.o)
 .rodata.str1.8
                0x0000000010000208       0x13 c:/psdk3v2/ps3dev/ppu/bin/../lib/gcc/powerpc64-ps3-elf/4.5.2/../../../../powerpc64-ps3-elf/lib\libc.a(lib_a-strtod.o)
 *fill*         0x000000001000021b        0x5 00
 .rodata.tinytens
                0x0000000010000220       0x28 c:/psdk3v2/ps3dev/ppu/bin/../lib/gcc/powerpc64-ps3-elf/4.5.2/../../../../powerpc64-ps3-elf/lib\libc.a(lib_a-strtod.o)
 .rodata.basefix.3841
                0x0000000010000248       0x22 c:/psdk3v2/ps3dev/ppu/bin/../lib/gcc/powerpc64-ps3-elf/4.5.2/../../../../powerpc64-ps3-elf/lib\libc.a(lib_a-svfiscanf.o)
 *fill*         0x000000001000026a        0x6 00
 .rodata.zeroes.4425
                0x0000000010000270       0x10 c:/psdk3v2/ps3dev/ppu/bin/../lib/gcc/powerpc64-ps3-elf/4.5.2/../../../../powerpc64-ps3-elf/lib\libc.a(lib_a-svfprintf.o)
 .rodata.cst8   0x0000000000000000        0x8 c:/psdk3v2/ps3dev/ppu/bin/../lib/gcc/powerpc64-ps3-elf/4.5.2/../../../../powerpc64-ps3-elf/lib\libc.a(lib_a-svfprintf.o)
 .rodata.blanks.4424
                0x0000000010000280       0x10 c:/psdk3v2/ps3dev/ppu/bin/../lib/gcc/powerpc64-ps3-elf/4.5.2/../../../../powerpc64-ps3-elf/lib\libc.a(lib_a-svfprintf.o)
 .rodata.str1.8
                0x0000000010000290       0x5a c:/psdk3v2/ps3dev/ppu/bin/../lib/gcc/powerpc64-ps3-elf/4.5.2/../../../../powerpc64-ps3-elf/lib\libc.a(lib_a-svfprintf.o)
 *fill*         0x00000000100002ea        0x2 00
 .rodata.cst4   0x00000000100002ec       0x10 c:/psdk3v2/ps3dev/ppu/bin/../lib/gcc/powerpc64-ps3-elf/4.5.2/../../../../powerpc64-ps3-elf/lib\libc.a(lib_a-dtoa.o)
                                         0x18 (size before relaxing)
 *fill*         0x00000000100002fc        0x4 00
 .rodata.cst8   0x0000000010000300       0x18 c:/psdk3v2/ps3dev/ppu/bin/../lib/gcc/powerpc64-ps3-elf/4.5.2/../../../../powerpc64-ps3-elf/lib\libc.a(lib_a-dtoa.o)
                                         0x20 (size before relaxing)
 .rodata.str1.8
                0x0000000010000318       0x14 c:/psdk3v2/ps3dev/ppu/bin/../lib/gcc/powerpc64-ps3-elf/4.5.2/../../../../powerpc64-ps3-elf/lib\libc.a(lib_a-dtoa.o)
                                         0x1a (size before relaxing)
 *fill*         0x000000001000032c        0x4 00
 .rodata.str1.8
                0x0000000010000330       0x20 c:/psdk3v2/ps3dev/ppu/bin/../lib/gcc/powerpc64-ps3-elf/4.5.2/../../../../powerpc64-ps3-elf/lib\libc.a(lib_a-gdtoa-gethex.o)
                                         0x1b (size before relaxing)
 .rodata.cst4   0x0000000000000000        0x8 c:/psdk3v2/ps3dev/ppu/bin/../lib/gcc/powerpc64-ps3-elf/4.5.2/../../../../powerpc64-ps3-elf/lib\libc.a(lib_a-mprec.o)
 .rodata.p05.2968
                0x0000000010000350        0xc c:/psdk3v2/ps3dev/ppu/bin/../lib/gcc/powerpc64-ps3-elf/4.5.2/../../../../powerpc64-ps3-elf/lib\libc.a(lib_a-mprec.o)
 *fill*         0x000000001000035c        0x4 00
 .rodata.__mprec_bigtens
                0x0000000010000360       0x28 c:/psdk3v2/ps3dev/ppu/bin/../lib/gcc/powerpc64-ps3-elf/4.5.2/../../../../powerpc64-ps3-elf/lib\libc.a(lib_a-mprec.o)
                0x0000000010000360                __mprec_bigtens
 .rodata.__mprec_tinytens
                0x0000000010000388       0x28 c:/psdk3v2/ps3dev/ppu/bin/../lib/gcc/powerpc64-ps3-elf/4.5.2/../../../../powerpc64-ps3-elf/lib\libc.a(lib_a-mprec.o)
                0x0000000010000388                __mprec_tinytens
 .rodata.__mprec_tens
                0x00000000100003b0       0xc8 c:/psdk3v2/ps3dev/ppu/bin/../lib/gcc/powerpc64-ps3-elf/4.5.2/../../../../powerpc64-ps3-elf/lib\libc.a(lib_a-mprec.o)
                0x00000000100003b0                __mprec_tens
 .rodata.zeroes.4369
                0x0000000010000478       0x10 c:/psdk3v2/ps3dev/ppu/bin/../lib/gcc/powerpc64-ps3-elf/4.5.2/../../../../powerpc64-ps3-elf/lib\libc.a(lib_a-svfiprintf.o)
 .rodata.blanks.4368
                0x0000000010000488       0x10 c:/psdk3v2/ps3dev/ppu/bin/../lib/gcc/powerpc64-ps3-elf/4.5.2/../../../../powerpc64-ps3-elf/lib\libc.a(lib_a-svfiprintf.o)
 .rodata.str1.8
                0x0000000000000000       0x37 c:/psdk3v2/ps3dev/ppu/bin/../lib/gcc/powerpc64-ps3-elf/4.5.2/../../../../powerpc64-ps3-elf/lib\libc.a(lib_a-svfiprintf.o)

.rodata1
 *(.rodata1)

.spu_image
 *(.spu_image .spu_image.*)
                0x0000000010010000                . = ALIGN (0x10000)

.data           0x0000000010010000     0x1490
 *(.data .data.* .gnu.linkonce.d.*)
 .data          0x0000000010010000        0x0 c:/psdk3v2/ps3dev/ppu/bin/../lib/gcc/powerpc64-ps3-elf/4.5.2/../../../../powerpc64-ps3-elf/lib/lv2-crti.o
 .data          0x0000000010010000        0x0 c:/psdk3v2/ps3dev/ppu/bin/../lib/gcc/powerpc64-ps3-elf/4.5.2/crtbegin.o
 .data.__dso_handle
                0x0000000010010000        0x8 c:/psdk3v2/ps3dev/ppu/bin/../lib/gcc/powerpc64-ps3-elf/4.5.2/crtbegin.o
                0x0000000010010000                __dso_handle
 .data          0x0000000010010008        0x0 c:/psdk3v2/ps3dev/ppu/bin/../lib/gcc/powerpc64-ps3-elf/4.5.2/../../../../powerpc64-ps3-elf/lib/lv2-crt0.o
 .data          0x0000000010010008        0x0 c:/psdk3v2/ps3dev/ppu/bin/../lib/gcc/powerpc64-ps3-elf/4.5.2/../../../../powerpc64-ps3-elf/lib/lv2-sprx.o
 .data          0x0000000010010008        0x0 loader.o
 .data.self_path
                0x0000000010010008      0x400 loader.o
                0x0000000010010008                self_path
 .data          0x0000000010010408        0x0 syscall8.o
 .data          0x0000000010010408        0x0 c:/PSDK3v2/psl1ght/ppu/lib\liblv2.a(process_wrapper.o)
 .data          0x0000000010010408        0x0 c:/PSDK3v2/psl1ght/ppu/lib\liblv2.a(sprx.o)
 .data          0x0000000010010408        0x0 c:/psdk3v2/ps3dev/ppu/bin/../lib/gcc/powerpc64-ps3-elf/4.5.2/../../../../powerpc64-ps3-elf/lib\libsysbase.a(syscalls.o)
 .data          0x0000000010010408        0x0 c:/psdk3v2/ps3dev/ppu/bin/../lib/gcc/powerpc64-ps3-elf/4.5.2/../../../../powerpc64-ps3-elf/lib\libc.a(lib_a-exit.o)
 .data          0x0000000010010408        0x0 c:/psdk3v2/ps3dev/ppu/bin/../lib/gcc/powerpc64-ps3-elf/4.5.2/../../../../powerpc64-ps3-elf/lib\libc.a(lib_a-impure.o)
 .data.impure_data
                0x0000000010010408      0x778 c:/psdk3v2/ps3dev/ppu/bin/../lib/gcc/powerpc64-ps3-elf/4.5.2/../../../../powerpc64-ps3-elf/lib\libc.a(lib_a-impure.o)
 .data._impure_ptr
                0x0000000010010b80        0x8 c:/psdk3v2/ps3dev/ppu/bin/../lib/gcc/powerpc64-ps3-elf/4.5.2/../../../../powerpc64-ps3-elf/lib\libc.a(lib_a-impure.o)
                0x0000000010010b80                _impure_ptr
 .data          0x0000000010010b88        0x0 c:/psdk3v2/ps3dev/ppu/bin/../lib/gcc/powerpc64-ps3-elf/4.5.2/../../../../powerpc64-ps3-elf/lib\libc.a(lib_a-malloc.o)
 .data          0x0000000010010b88        0x0 c:/psdk3v2/ps3dev/ppu/bin/../lib/gcc/powerpc64-ps3-elf/4.5.2/../../../../powerpc64-ps3-elf/lib\libc.a(lib_a-mallocr.o)
 .data.rel.__malloc_av_
                0x0000000010010b88      0x810 c:/psdk3v2/ps3dev/ppu/bin/../lib/gcc/powerpc64-ps3-elf/4.5.2/../../../../powerpc64-ps3-elf/lib\libc.a(lib_a-mallocr.o)
                0x0000000010010b88                __malloc_av_
 .data.__malloc_trim_threshold
                0x0000000010011398        0x8 c:/psdk3v2/ps3dev/ppu/bin/../lib/gcc/powerpc64-ps3-elf/4.5.2/../../../../powerpc64-ps3-elf/lib\libc.a(lib_a-mallocr.o)
                0x0000000010011398                __malloc_trim_threshold
 .data.__malloc_sbrk_base
                0x00000000100113a0        0x8 c:/psdk3v2/ps3dev/ppu/bin/../lib/gcc/powerpc64-ps3-elf/4.5.2/../../../../powerpc64-ps3-elf/lib\libc.a(lib_a-mallocr.o)
                0x00000000100113a0                __malloc_sbrk_base
 .data          0x00000000100113a8        0x0 c:/psdk3v2/ps3dev/ppu/bin/../lib/gcc/powerpc64-ps3-elf/4.5.2/../../../../powerpc64-ps3-elf/lib\libc.a(lib_a-mlock.o)
 .data          0x00000000100113a8        0x0 c:/psdk3v2/ps3dev/ppu/bin/../lib/gcc/powerpc64-ps3-elf/4.5.2/../../../../powerpc64-ps3-elf/lib\libc.a(lib_a-strcpy.o)
 .data          0x00000000100113a8        0x0 c:/psdk3v2/ps3dev/ppu/bin/../lib/gcc/powerpc64-ps3-elf/4.5.2/../../../../powerpc64-ps3-elf/lib\libc.a(lib_a-strlen.o)
 .data          0x00000000100113a8        0x0 c:/psdk3v2/ps3dev/ppu/bin/../lib/gcc/powerpc64-ps3-elf/4.5.2/../../../../powerpc64-ps3-elf/lib\libc.a(lib_a-strncmp.o)
 .data          0x00000000100113a8        0x0 c:/psdk3v2/ps3dev/ppu/bin/../lib/gcc/powerpc64-ps3-elf/4.5.2/../../../../powerpc64-ps3-elf/lib\libc.a(lib_a-__call_atexit.o)
 .data          0x00000000100113a8        0x0 c:/psdk3v2/ps3dev/ppu/bin/../lib/gcc/powerpc64-ps3-elf/4.5.2/../../../../powerpc64-ps3-elf/lib\libc.a(lib_a-freer.o)
 .data          0x00000000100113a8        0x0 c:/psdk3v2/ps3dev/ppu/bin/../lib/gcc/powerpc64-ps3-elf/4.5.2/../../../../powerpc64-ps3-elf/lib\libc.a(lib_a-getreent.o)
 .data          0x00000000100113a8        0x0 c:/psdk3v2/ps3dev/ppu/bin/../lib/gcc/powerpc64-ps3-elf/4.5.2/../../../../powerpc64-ps3-elf/lib\libc.a(lib_a-lock_recursive.o)
 .data          0x00000000100113a8        0x0 c:/psdk3v2/ps3dev/ppu/bin/../lib/gcc/powerpc64-ps3-elf/4.5.2/../../../../powerpc64-ps3-elf/lib\libc.a(lib_a-memset.o)
 .data          0x00000000100113a8        0x0 c:/psdk3v2/ps3dev/ppu/bin/../lib/gcc/powerpc64-ps3-elf/4.5.2/../../../../powerpc64-ps3-elf/lib\libc.a(lib_a-__atexit.o)
 .data          0x00000000100113a8        0x0 c:/psdk3v2/ps3dev/ppu/bin/../lib/gcc/powerpc64-ps3-elf/4.5.2/../../../../powerpc64-ps3-elf/lib\libc.a(lib_a-lock_internal.o)
 .data          0x00000000100113a8        0x0 c:/psdk3v2/ps3dev/ppu/bin/../lib/gcc/powerpc64-ps3-elf/4.5.2/../../../../powerpc64-ps3-elf/lib\libc.a(lib_a-abort.o)
 .data          0x00000000100113a8        0x0 c:/psdk3v2/ps3dev/ppu/bin/../lib/gcc/powerpc64-ps3-elf/4.5.2/../../../../powerpc64-ps3-elf/lib\libc.a(lib_a-signal.o)
 .data          0x00000000100113a8        0x0 c:/PSDK3v2/psl1ght/ppu/lib\librt.a(sbrk.o)
 .data          0x00000000100113a8        0x0 c:/PSDK3v2/psl1ght/ppu/lib\librt.a(exit.o)
 .data          0x00000000100113a8        0x0 c:/PSDK3v2/psl1ght/ppu/lib\librt.a(close.o)
 .data          0x00000000100113a8        0x0 c:/PSDK3v2/psl1ght/ppu/lib\librt.a(lseek.o)
 .data          0x00000000100113a8        0x0 c:/PSDK3v2/psl1ght/ppu/lib\librt.a(read.o)
 .data          0x00000000100113a8        0x0 c:/PSDK3v2/psl1ght/ppu/lib\librt.a(open.o)
 .data          0x00000000100113a8        0x0 c:/PSDK3v2/psl1ght/ppu/lib\librt.a(sleep.o)
 .data          0x00000000100113a8        0x0 c:/PSDK3v2/psl1ght/ppu/lib\librt.a(write.o)
 .data          0x00000000100113a8        0x0 c:/PSDK3v2/psl1ght/ppu/lib\librt.a(fstat.o)
 .data          0x00000000100113a8        0x0 c:/PSDK3v2/psl1ght/ppu/lib\librt.a(socket.o)
 .data          0x00000000100113a8        0x0 c:/PSDK3v2/psl1ght/ppu/lib\librt.a(lock.o)
 .data          0x00000000100113a8        0x0 c:/PSDK3v2/psl1ght/ppu/lib\librt.a(dirent.o)
 .data          0x00000000100113a8        0x0 c:/PSDK3v2/psl1ght/ppu/lib\librt.a(mkdir.o)
 .data          0x00000000100113a8        0x0 c:/PSDK3v2/psl1ght/ppu/lib\librt.a(times.o)
 .data          0x00000000100113a8        0x0 c:/PSDK3v2/psl1ght/ppu/lib\librt.a(umask.o)
 .data.g_umask  0x00000000100113a8        0x4 c:/PSDK3v2/psl1ght/ppu/lib\librt.a(umask.o)
                0x00000000100113a8                g_umask
 .data          0x00000000100113ac        0x0 c:/PSDK3v2/psl1ght/ppu/lib\librt.a(lv2errno.o)
 .data          0x00000000100113ac        0x0 c:/PSDK3v2/psl1ght/ppu/lib\librt.a(heap.o)
 .data          0x00000000100113ac        0x0 c:/PSDK3v2/psl1ght/ppu/lib\librt.a(chmod.o)
 .data          0x00000000100113ac        0x0 c:/PSDK3v2/psl1ght/ppu/lib\librt.a(rmdir.o)
 .data          0x00000000100113ac        0x0 c:/PSDK3v2/psl1ght/ppu/lib\librt.a(isatty.o)
 .data          0x00000000100113ac        0x0 c:/PSDK3v2/psl1ght/ppu/lib\librt.a(gettod.o)
 .data          0x00000000100113ac        0x0 c:/PSDK3v2/psl1ght/ppu/lib\librt.a(settod.o)
 .data          0x00000000100113ac        0x0 c:/psdk3v2/ps3dev/ppu/bin/../lib/gcc/powerpc64-ps3-elf/4.5.2/../../../../powerpc64-ps3-elf/lib\libsysbase.a(sbrk.o)
 .data          0x00000000100113ac        0x0 c:/psdk3v2/ps3dev/ppu/bin/../lib/gcc/powerpc64-ps3-elf/4.5.2/../../../../powerpc64-ps3-elf/lib\libsysbase.a(_exit.o)
 .data          0x00000000100113ac        0x0 c:/psdk3v2/ps3dev/ppu/bin/../lib/gcc/powerpc64-ps3-elf/4.5.2/../../../../powerpc64-ps3-elf/lib\libsysbase.a(lock.o)
 .data          0x00000000100113ac        0x0 c:/psdk3v2/ps3dev/ppu/bin/../lib/gcc/powerpc64-ps3-elf/4.5.2/../../../../powerpc64-ps3-elf/lib\libsysbase.a(getpid.o)
 .data          0x00000000100113ac        0x0 c:/psdk3v2/ps3dev/ppu/bin/../lib/gcc/powerpc64-ps3-elf/4.5.2/../../../../powerpc64-ps3-elf/lib\libsysbase.a(kill.o)
 .data          0x00000000100113ac        0x0 c:/psdk3v2/ps3dev/ppu/bin/../lib/gcc/powerpc64-ps3-elf/4.5.2/../../../../powerpc64-ps3-elf/lib\libc.a(lib_a-errno.o)
 .data          0x00000000100113ac        0x0 c:/psdk3v2/ps3dev/ppu/bin/../lib/gcc/powerpc64-ps3-elf/4.5.2/../../../../powerpc64-ps3-elf/lib\libc.a(lib_a-sscanf.o)
 .data          0x00000000100113ac        0x0 c:/psdk3v2/ps3dev/ppu/bin/../lib/gcc/powerpc64-ps3-elf/4.5.2/../../../../powerpc64-ps3-elf/lib\libc.a(lib_a-stdio.o)
 .data          0x00000000100113ac        0x0 c:/psdk3v2/ps3dev/ppu/bin/../lib/gcc/powerpc64-ps3-elf/4.5.2/../../../../powerpc64-ps3-elf/lib\libc.a(lib_a-strncpy.o)
 .data          0x00000000100113ac        0x0 c:/psdk3v2/ps3dev/ppu/bin/../lib/gcc/powerpc64-ps3-elf/4.5.2/../../../../powerpc64-ps3-elf/lib\libc.a(lib_a-svfscanf.o)
 .data          0x00000000100113ac        0x0 c:/psdk3v2/ps3dev/ppu/bin/../lib/gcc/powerpc64-ps3-elf/4.5.2/../../../../powerpc64-ps3-elf/lib\libc.a(lib_a-ctype_.o)
 *fill*         0x00000000100113ac        0x4 00
 .data.rel.__ctype_ptr__
                0x00000000100113b0        0x8 c:/psdk3v2/ps3dev/ppu/bin/../lib/gcc/powerpc64-ps3-elf/4.5.2/../../../../powerpc64-ps3-elf/lib\libc.a(lib_a-ctype_.o)
                0x00000000100113b0                __ctype_ptr__
 .data          0x00000000100113b8        0x0 c:/psdk3v2/ps3dev/ppu/bin/../lib/gcc/powerpc64-ps3-elf/4.5.2/../../../../powerpc64-ps3-elf/lib\libc.a(lib_a-findfp.o)
 .data          0x00000000100113b8        0x0 c:/psdk3v2/ps3dev/ppu/bin/../lib/gcc/powerpc64-ps3-elf/4.5.2/../../../../powerpc64-ps3-elf/lib\libc.a(lib_a-fwalk.o)
 .data          0x00000000100113b8        0x0 c:/psdk3v2/ps3dev/ppu/bin/../lib/gcc/powerpc64-ps3-elf/4.5.2/../../../../powerpc64-ps3-elf/lib\libc.a(lib_a-iswspace.o)
 .data          0x00000000100113b8        0x0 c:/psdk3v2/ps3dev/ppu/bin/../lib/gcc/powerpc64-ps3-elf/4.5.2/../../../../powerpc64-ps3-elf/lib\libc.a(lib_a-locale.o)
 .data.lc_message_charset
                0x00000000100113b8       0x20 c:/psdk3v2/ps3dev/ppu/bin/../lib/gcc/powerpc64-ps3-elf/4.5.2/../../../../powerpc64-ps3-elf/lib\libc.a(lib_a-locale.o)
 .data.lconv    0x00000000100113d8       0x60 c:/psdk3v2/ps3dev/ppu/bin/../lib/gcc/powerpc64-ps3-elf/4.5.2/../../../../powerpc64-ps3-elf/lib\libc.a(lib_a-locale.o)
 .data.lc_ctype_charset
                0x0000000010011438       0x20 c:/psdk3v2/ps3dev/ppu/bin/../lib/gcc/powerpc64-ps3-elf/4.5.2/../../../../powerpc64-ps3-elf/lib\libc.a(lib_a-locale.o)
 .data.__mb_cur_max
                0x0000000010011458        0x4 c:/psdk3v2/ps3dev/ppu/bin/../lib/gcc/powerpc64-ps3-elf/4.5.2/../../../../powerpc64-ps3-elf/lib\libc.a(lib_a-locale.o)
                0x0000000010011458                __mb_cur_max
 .data          0x000000001001145c        0x0 c:/psdk3v2/ps3dev/ppu/bin/../lib/gcc/powerpc64-ps3-elf/4.5.2/../../../../powerpc64-ps3-elf/lib\libc.a(lib_a-mbrtowc.o)
 .data          0x000000001001145c        0x0 c:/psdk3v2/ps3dev/ppu/bin/../lib/gcc/powerpc64-ps3-elf/4.5.2/../../../../powerpc64-ps3-elf/lib\libc.a(lib_a-mbtowc_r.o)
 *fill*         0x000000001001145c        0x4 00
 .data.rel.__mbtowc
                0x0000000010011460        0x8 c:/psdk3v2/ps3dev/ppu/bin/../lib/gcc/powerpc64-ps3-elf/4.5.2/../../../../powerpc64-ps3-elf/lib\libc.a(lib_a-mbtowc_r.o)
                0x0000000010011460                __mbtowc
 .data          0x0000000010011468        0x0 c:/psdk3v2/ps3dev/ppu/bin/../lib/gcc/powerpc64-ps3-elf/4.5.2/../../../../powerpc64-ps3-elf/lib\libc.a(lib_a-s_fpclassify.o)
 .data          0x0000000010011468        0x0 c:/psdk3v2/ps3dev/ppu/bin/../lib/gcc/powerpc64-ps3-elf/4.5.2/../../../../powerpc64-ps3-elf/lib\libc.a(lib_a-sccl.o)
 .data          0x0000000010011468        0x0 c:/psdk3v2/ps3dev/ppu/bin/../lib/gcc/powerpc64-ps3-elf/4.5.2/../../../../powerpc64-ps3-elf/lib\libc.a(lib_a-sf_nan.o)
 .data          0x0000000010011468        0x0 c:/psdk3v2/ps3dev/ppu/bin/../lib/gcc/powerpc64-ps3-elf/4.5.2/../../../../powerpc64-ps3-elf/lib\libc.a(lib_a-sprintf.o)
 .data          0x0000000010011468        0x0 c:/psdk3v2/ps3dev/ppu/bin/../lib/gcc/powerpc64-ps3-elf/4.5.2/../../../../powerpc64-ps3-elf/lib\libc.a(lib_a-strcmp.o)
 .data          0x0000000010011468        0x0 c:/psdk3v2/ps3dev/ppu/bin/../lib/gcc/powerpc64-ps3-elf/4.5.2/../../../../powerpc64-ps3-elf/lib\libc.a(lib_a-strtod.o)
 .data.fpi.2928
                0x0000000010011468       0x14 c:/psdk3v2/ps3dev/ppu/bin/../lib/gcc/powerpc64-ps3-elf/4.5.2/../../../../powerpc64-ps3-elf/lib\libc.a(lib_a-strtod.o)
 .data.fpinan.2964
                0x000000001001147c       0x14 c:/psdk3v2/ps3dev/ppu/bin/../lib/gcc/powerpc64-ps3-elf/4.5.2/../../../../powerpc64-ps3-elf/lib\libc.a(lib_a-strtod.o)
 .data          0x0000000010011490        0x0 c:/psdk3v2/ps3dev/ppu/bin/../lib/gcc/powerpc64-ps3-elf/4.5.2/../../../../powerpc64-ps3-elf/lib\libc.a(lib_a-strtol.o)
 .data          0x0000000010011490        0x0 c:/psdk3v2/ps3dev/ppu/bin/../lib/gcc/powerpc64-ps3-elf/4.5.2/../../../../powerpc64-ps3-elf/lib\libc.a(lib_a-strtoll_r.o)
 .data          0x0000000010011490        0x0 c:/psdk3v2/ps3dev/ppu/bin/../lib/gcc/powerpc64-ps3-elf/4.5.2/../../../../powerpc64-ps3-elf/lib\libc.a(lib_a-strtoul.o)
 .data          0x0000000010011490        0x0 c:/psdk3v2/ps3dev/ppu/bin/../lib/gcc/powerpc64-ps3-elf/4.5.2/../../../../powerpc64-ps3-elf/lib\libc.a(lib_a-strtoull_r.o)
 .data          0x0000000010011490        0x0 c:/psdk3v2/ps3dev/ppu/bin/../lib/gcc/powerpc64-ps3-elf/4.5.2/../../../../powerpc64-ps3-elf/lib\libc.a(lib_a-svfiscanf.o)
 .data          0x0000000010011490        0x0 c:/psdk3v2/ps3dev/ppu/bin/../lib/gcc/powerpc64-ps3-elf/4.5.2/../../../../powerpc64-ps3-elf/lib\libc.a(lib_a-svfprintf.o)
 .data          0x0000000010011490        0x0 c:/psdk3v2/ps3dev/ppu/bin/../lib/gcc/powerpc64-ps3-elf/4.5.2/../../../../powerpc64-ps3-elf/lib\libc.a(lib_a-ungetc.o)
 .data          0x0000000010011490        0x0 c:/psdk3v2/ps3dev/ppu/bin/../lib/gcc/powerpc64-ps3-elf/4.5.2/../../../../powerpc64-ps3-elf/lib\libc.a(lib_a-dtoa.o)
 .data          0x0000000010011490        0x0 c:/psdk3v2/ps3dev/ppu/bin/../lib/gcc/powerpc64-ps3-elf/4.5.2/../../../../powerpc64-ps3-elf/lib\libc.a(lib_a-fclose.o)
 .data          0x0000000010011490        0x0 c:/psdk3v2/ps3dev/ppu/bin/../lib/gcc/powerpc64-ps3-elf/4.5.2/../../../../powerpc64-ps3-elf/lib\libc.a(lib_a-fflush.o)
 .data          0x0000000010011490        0x0 c:/psdk3v2/ps3dev/ppu/bin/../lib/gcc/powerpc64-ps3-elf/4.5.2/../../../../powerpc64-ps3-elf/lib\libc.a(lib_a-gdtoa-gethex.o)
 .data          0x0000000010011490        0x0 c:/psdk3v2/ps3dev/ppu/bin/../lib/gcc/powerpc64-ps3-elf/4.5.2/../../../../powerpc64-ps3-elf/lib\libc.a(lib_a-gdtoa-hexnan.o)
 .data          0x0000000010011490        0x0 c:/psdk3v2/ps3dev/ppu/bin/../lib/gcc/powerpc64-ps3-elf/4.5.2/../../../../powerpc64-ps3-elf/lib\libc.a(lib_a-memchr.o)
 .data          0x0000000010011490        0x0 c:/psdk3v2/ps3dev/ppu/bin/../lib/gcc/powerpc64-ps3-elf/4.5.2/../../../../powerpc64-ps3-elf/lib\libc.a(lib_a-memcpy.o)
 .data          0x0000000010011490        0x0 c:/psdk3v2/ps3dev/ppu/bin/../lib/gcc/powerpc64-ps3-elf/4.5.2/../../../../powerpc64-ps3-elf/lib\libc.a(lib_a-mprec.o)
 .data          0x0000000010011490        0x0 c:/psdk3v2/ps3dev/ppu/bin/../lib/gcc/powerpc64-ps3-elf/4.5.2/../../../../powerpc64-ps3-elf/lib\libc.a(lib_a-reallocr.o)
 .data          0x0000000010011490        0x0 c:/psdk3v2/ps3dev/ppu/bin/../lib/gcc/powerpc64-ps3-elf/4.5.2/../../../../powerpc64-ps3-elf/lib\libc.a(lib_a-svfiprintf.o)
 .data          0x0000000010011490        0x0 c:/psdk3v2/ps3dev/ppu/bin/../lib/gcc/powerpc64-ps3-elf/4.5.2/../../../../powerpc64-ps3-elf/lib\libc.a(lib_a-callocr.o)
 .data          0x0000000010011490        0x0 c:/psdk3v2/ps3dev/ppu/bin/../lib/gcc/powerpc64-ps3-elf/4.5.2/../../../../powerpc64-ps3-elf/lib\libc.a(lib_a-memmove.o)
 .data          0x0000000010011490        0x0 c:/psdk3v2/ps3dev/ppu/bin/../lib/gcc/powerpc64-ps3-elf/4.5.2/../../../../powerpc64-ps3-elf/lib\libsysbase.a(close.o)
 .data          0x0000000010011490        0x0 c:/psdk3v2/ps3dev/ppu/bin/../lib/gcc/powerpc64-ps3-elf/4.5.2/../../../../powerpc64-ps3-elf/lib\libsysbase.a(lseek.o)
 .data          0x0000000010011490        0x0 c:/psdk3v2/ps3dev/ppu/bin/../lib/gcc/powerpc64-ps3-elf/4.5.2/../../../../powerpc64-ps3-elf/lib\libsysbase.a(read.o)
 .data          0x0000000010011490        0x0 c:/psdk3v2/ps3dev/ppu/bin/../lib/gcc/powerpc64-ps3-elf/4.5.2/../../../../powerpc64-ps3-elf/lib\libsysbase.a(write.o)
 .data          0x0000000010011490        0x0 c:/psdk3v2/ps3dev/ppu/bin/../lib/gcc/powerpc64-ps3-elf/4.5.2/crtend.o
 .data          0x0000000010011490        0x0 c:/psdk3v2/ps3dev/ppu/bin/../lib/gcc/powerpc64-ps3-elf/4.5.2/../../../../powerpc64-ps3-elf/lib/lv2-crtn.o
 *(.gnu.linkonce.d.*personality*)

.data1
 *(.data1)

.sdata
 *(.sdata .sdata.* .gnu.linkonce.s.*)
                0x0000000010011490                _edata = .
                0x0000000010011490                PROVIDE (edata, .)
                0x0000000010011490                __bss_start = .

.tocbss
 *(.tocbss)

.sbss           0x0000000010011490        0x0
                0x0000000010011490                PROVIDE (__sbss_start, .)
                0x0000000010011490                PROVIDE (___sbss_start, .)
 *(.dynsbss)
 *(.sbss .sbss.* .gnu.linkonce.sb.*)
 *(.scommon)
                0x0000000010011490                PROVIDE (__sbss_end, .)
                0x0000000010011490                PROVIDE (___sbss_end, .)

.plt
 *(.plt)

.bss            0x00000000100114c0     0x2430
 *(.dynbss)
 *(.bss .bss.* .gnu.linkonce.b.*)
 .bss           0x00000000100114c0        0x0 c:/psdk3v2/ps3dev/ppu/bin/../lib/gcc/powerpc64-ps3-elf/4.5.2/../../../../powerpc64-ps3-elf/lib/lv2-crti.o
 .bss           0x00000000100114c0        0x0 c:/psdk3v2/ps3dev/ppu/bin/../lib/gcc/powerpc64-ps3-elf/4.5.2/crtbegin.o
 .bss.completed.4302
                0x00000000100114c0        0x1 c:/psdk3v2/ps3dev/ppu/bin/../lib/gcc/powerpc64-ps3-elf/4.5.2/crtbegin.o
 *fill*         0x00000000100114c1        0x7 00
 .bss.dtor_idx.4304
                0x00000000100114c8        0x8 c:/psdk3v2/ps3dev/ppu/bin/../lib/gcc/powerpc64-ps3-elf/4.5.2/crtbegin.o
 .bss.object.4314
                0x00000000100114d0       0x30 c:/psdk3v2/ps3dev/ppu/bin/../lib/gcc/powerpc64-ps3-elf/4.5.2/crtbegin.o
 .bss           0x0000000010011500        0x8 c:/psdk3v2/ps3dev/ppu/bin/../lib/gcc/powerpc64-ps3-elf/4.5.2/../../../../powerpc64-ps3-elf/lib/lv2-crt0.o
                0x0000000010011500                __libc_stack_end
 .bss           0x0000000010011508        0x0 c:/psdk3v2/ps3dev/ppu/bin/../lib/gcc/powerpc64-ps3-elf/4.5.2/../../../../powerpc64-ps3-elf/lib/lv2-sprx.o
 .bss           0x0000000010011508        0x0 loader.o
 .bss.restore_syscall8
                0x0000000010011508       0x10 loader.o
                0x0000000010011508                restore_syscall8
 .bss           0x0000000010011518        0x0 syscall8.o
 .bss.sys8_disable_all
                0x0000000010011518        0x4 syscall8.o
                0x0000000010011518                sys8_disable_all
 .bss           0x000000001001151c        0x0 c:/PSDK3v2/psl1ght/ppu/lib\liblv2.a(process_wrapper.o)
 .bss           0x000000001001151c        0x0 c:/PSDK3v2/psl1ght/ppu/lib\liblv2.a(sprx.o)
 .bss           0x000000001001151c        0x0 c:/psdk3v2/ps3dev/ppu/bin/../lib/gcc/powerpc64-ps3-elf/4.5.2/../../../../powerpc64-ps3-elf/lib\libsysbase.a(syscalls.o)
 *fill*         0x000000001001151c        0x4 00
 .bss.__syscalls
                0x0000000010011520      0x170 c:/psdk3v2/ps3dev/ppu/bin/../lib/gcc/powerpc64-ps3-elf/4.5.2/../../../../powerpc64-ps3-elf/lib\libsysbase.a(syscalls.o)
                0x0000000010011520                __syscalls
 .bss           0x0000000010011690        0x0 c:/psdk3v2/ps3dev/ppu/bin/../lib/gcc/powerpc64-ps3-elf/4.5.2/../../../../powerpc64-ps3-elf/lib\libc.a(lib_a-exit.o)
 .bss           0x0000000010011690        0x0 c:/psdk3v2/ps3dev/ppu/bin/../lib/gcc/powerpc64-ps3-elf/4.5.2/../../../../powerpc64-ps3-elf/lib\libc.a(lib_a-impure.o)
 .bss           0x0000000010011690        0x0 c:/psdk3v2/ps3dev/ppu/bin/../lib/gcc/powerpc64-ps3-elf/4.5.2/../../../../powerpc64-ps3-elf/lib\libc.a(lib_a-malloc.o)
 .bss           0x0000000010011690        0x0 c:/psdk3v2/ps3dev/ppu/bin/../lib/gcc/powerpc64-ps3-elf/4.5.2/../../../../powerpc64-ps3-elf/lib\libc.a(lib_a-mallocr.o)
 .bss.__malloc_max_total_mem
                0x0000000010011690        0x8 c:/psdk3v2/ps3dev/ppu/bin/../lib/gcc/powerpc64-ps3-elf/4.5.2/../../../../powerpc64-ps3-elf/lib\libc.a(lib_a-mallocr.o)
                0x0000000010011690                __malloc_max_total_mem
 .bss.__malloc_max_sbrked_mem
                0x0000000010011698        0x8 c:/psdk3v2/ps3dev/ppu/bin/../lib/gcc/powerpc64-ps3-elf/4.5.2/../../../../powerpc64-ps3-elf/lib\libc.a(lib_a-mallocr.o)
                0x0000000010011698                __malloc_max_sbrked_mem
 .bss.__malloc_top_pad
                0x00000000100116a0        0x8 c:/psdk3v2/ps3dev/ppu/bin/../lib/gcc/powerpc64-ps3-elf/4.5.2/../../../../powerpc64-ps3-elf/lib\libc.a(lib_a-mallocr.o)
                0x00000000100116a0                __malloc_top_pad
 .bss.__malloc_current_mallinfo
                0x00000000100116a8       0x28 c:/psdk3v2/ps3dev/ppu/bin/../lib/gcc/powerpc64-ps3-elf/4.5.2/../../../../powerpc64-ps3-elf/lib\libc.a(lib_a-mallocr.o)
                0x00000000100116a8                __malloc_current_mallinfo
 .bss           0x00000000100116d0        0x0 c:/psdk3v2/ps3dev/ppu/bin/../lib/gcc/powerpc64-ps3-elf/4.5.2/../../../../powerpc64-ps3-elf/lib\libc.a(lib_a-mlock.o)
 .bss.__malloc_lock_object
                0x00000000100116d0       0x18 c:/psdk3v2/ps3dev/ppu/bin/../lib/gcc/powerpc64-ps3-elf/4.5.2/../../../../powerpc64-ps3-elf/lib\libc.a(lib_a-mlock.o)
 .bss           0x00000000100116e8        0x0 c:/psdk3v2/ps3dev/ppu/bin/../lib/gcc/powerpc64-ps3-elf/4.5.2/../../../../powerpc64-ps3-elf/lib\libc.a(lib_a-strcpy.o)
 .bss           0x00000000100116e8        0x0 c:/psdk3v2/ps3dev/ppu/bin/../lib/gcc/powerpc64-ps3-elf/4.5.2/../../../../powerpc64-ps3-elf/lib\libc.a(lib_a-strlen.o)
 .bss           0x00000000100116e8        0x0 c:/psdk3v2/ps3dev/ppu/bin/../lib/gcc/powerpc64-ps3-elf/4.5.2/../../../../powerpc64-ps3-elf/lib\libc.a(lib_a-strncmp.o)
 .bss           0x00000000100116e8        0x0 c:/psdk3v2/ps3dev/ppu/bin/../lib/gcc/powerpc64-ps3-elf/4.5.2/../../../../powerpc64-ps3-elf/lib\libc.a(lib_a-__call_atexit.o)
 .bss           0x00000000100116e8        0x0 c:/psdk3v2/ps3dev/ppu/bin/../lib/gcc/powerpc64-ps3-elf/4.5.2/../../../../powerpc64-ps3-elf/lib\libc.a(lib_a-freer.o)
 .bss           0x00000000100116e8        0x0 c:/psdk3v2/ps3dev/ppu/bin/../lib/gcc/powerpc64-ps3-elf/4.5.2/../../../../powerpc64-ps3-elf/lib\libc.a(lib_a-getreent.o)
 .bss           0x00000000100116e8        0x0 c:/psdk3v2/ps3dev/ppu/bin/../lib/gcc/powerpc64-ps3-elf/4.5.2/../../../../powerpc64-ps3-elf/lib\libc.a(lib_a-lock_recursive.o)
 .bss           0x00000000100116e8        0x0 c:/psdk3v2/ps3dev/ppu/bin/../lib/gcc/powerpc64-ps3-elf/4.5.2/../../../../powerpc64-ps3-elf/lib\libc.a(lib_a-memset.o)
 .bss           0x00000000100116e8        0x0 c:/psdk3v2/ps3dev/ppu/bin/../lib/gcc/powerpc64-ps3-elf/4.5.2/../../../../powerpc64-ps3-elf/lib\libc.a(lib_a-__atexit.o)
 .bss.__atexit_lock
                0x00000000100116e8       0x18 c:/psdk3v2/ps3dev/ppu/bin/../lib/gcc/powerpc64-ps3-elf/4.5.2/../../../../powerpc64-ps3-elf/lib\libc.a(lib_a-__atexit.o)
                0x00000000100116e8                __atexit_lock
 .bss           0x0000000010011700        0x0 c:/psdk3v2/ps3dev/ppu/bin/../lib/gcc/powerpc64-ps3-elf/4.5.2/../../../../powerpc64-ps3-elf/lib\libc.a(lib_a-lock_internal.o)
 .bss.metaLock  0x0000000010011700       0x18 c:/psdk3v2/ps3dev/ppu/bin/../lib/gcc/powerpc64-ps3-elf/4.5.2/../../../../powerpc64-ps3-elf/lib\libc.a(lib_a-lock_internal.o)
 .bss           0x0000000010011718        0x0 c:/psdk3v2/ps3dev/ppu/bin/../lib/gcc/powerpc64-ps3-elf/4.5.2/../../../../powerpc64-ps3-elf/lib\libc.a(lib_a-abort.o)
 .bss           0x0000000010011718        0x0 c:/psdk3v2/ps3dev/ppu/bin/../lib/gcc/powerpc64-ps3-elf/4.5.2/../../../../powerpc64-ps3-elf/lib\libc.a(lib_a-signal.o)
 .bss           0x0000000010011718        0x0 c:/PSDK3v2/psl1ght/ppu/lib\librt.a(sbrk.o)
 .bss.__sbrk_baseaddr
                0x0000000010011718        0x4 c:/PSDK3v2/psl1ght/ppu/lib\librt.a(sbrk.o)
 *fill*         0x000000001001171c        0x4 00
 .bss.__sbrk_curr_regionentry
                0x0000000010011720        0x8 c:/PSDK3v2/psl1ght/ppu/lib\librt.a(sbrk.o)
 *fill*         0x0000000010011728       0x18 00
 .bss.__region_list_entries
                0x0000000010011740     0x2020 c:/PSDK3v2/psl1ght/ppu/lib\librt.a(sbrk.o)
 .bss.__sbrk_spinlock
                0x0000000010013760        0x4 c:/PSDK3v2/psl1ght/ppu/lib\librt.a(sbrk.o)
 *fill*         0x0000000010013764        0x4 00
 .bss.__region_heap
                0x0000000010013768       0x48 c:/PSDK3v2/psl1ght/ppu/lib\librt.a(sbrk.o)
 .bss           0x00000000100137b0        0x0 c:/PSDK3v2/psl1ght/ppu/lib\librt.a(exit.o)
 .bss           0x00000000100137b0        0x0 c:/PSDK3v2/psl1ght/ppu/lib\librt.a(close.o)
 .bss           0x00000000100137b0        0x0 c:/PSDK3v2/psl1ght/ppu/lib\librt.a(lseek.o)
 .bss           0x00000000100137b0        0x0 c:/PSDK3v2/psl1ght/ppu/lib\librt.a(read.o)
 .bss           0x00000000100137b0        0x0 c:/PSDK3v2/psl1ght/ppu/lib\librt.a(open.o)
 .bss           0x00000000100137b0        0x0 c:/PSDK3v2/psl1ght/ppu/lib\librt.a(sleep.o)
 .bss           0x00000000100137b0        0x0 c:/PSDK3v2/psl1ght/ppu/lib\librt.a(write.o)
 .bss           0x00000000100137b0        0x0 c:/PSDK3v2/psl1ght/ppu/lib\librt.a(fstat.o)
 .bss           0x00000000100137b0        0x0 c:/PSDK3v2/psl1ght/ppu/lib\librt.a(socket.o)
 .bss           0x00000000100137b0        0x0 c:/PSDK3v2/psl1ght/ppu/lib\librt.a(lock.o)
 .bss           0x00000000100137b0        0x0 c:/PSDK3v2/psl1ght/ppu/lib\librt.a(dirent.o)
 .bss           0x00000000100137b0        0x0 c:/PSDK3v2/psl1ght/ppu/lib\librt.a(mkdir.o)
 .bss           0x00000000100137b0        0x0 c:/PSDK3v2/psl1ght/ppu/lib\librt.a(times.o)
 .bss           0x00000000100137b0        0x0 c:/PSDK3v2/psl1ght/ppu/lib\librt.a(umask.o)
 .bss           0x00000000100137b0        0x0 c:/PSDK3v2/psl1ght/ppu/lib\librt.a(lv2errno.o)
 .bss           0x00000000100137b0        0x0 c:/PSDK3v2/psl1ght/ppu/lib\librt.a(heap.o)
 .bss           0x00000000100137b0        0x0 c:/PSDK3v2/psl1ght/ppu/lib\librt.a(chmod.o)
 .bss           0x00000000100137b0        0x0 c:/PSDK3v2/psl1ght/ppu/lib\librt.a(rmdir.o)
 .bss           0x00000000100137b0        0x0 c:/PSDK3v2/psl1ght/ppu/lib\librt.a(isatty.o)
 .bss           0x00000000100137b0        0x0 c:/PSDK3v2/psl1ght/ppu/lib\librt.a(gettod.o)
 .bss           0x00000000100137b0        0x0 c:/PSDK3v2/psl1ght/ppu/lib\librt.a(settod.o)
 .bss           0x00000000100137b0        0x0 c:/psdk3v2/ps3dev/ppu/bin/../lib/gcc/powerpc64-ps3-elf/4.5.2/../../../../powerpc64-ps3-elf/lib\libsysbase.a(sbrk.o)
 .bss           0x00000000100137b0        0x0 c:/psdk3v2/ps3dev/ppu/bin/../lib/gcc/powerpc64-ps3-elf/4.5.2/../../../../powerpc64-ps3-elf/lib\libsysbase.a(_exit.o)
 .bss           0x00000000100137b0        0x0 c:/psdk3v2/ps3dev/ppu/bin/../lib/gcc/powerpc64-ps3-elf/4.5.2/../../../../powerpc64-ps3-elf/lib\libsysbase.a(lock.o)
 .bss           0x00000000100137b0        0x0 c:/psdk3v2/ps3dev/ppu/bin/../lib/gcc/powerpc64-ps3-elf/4.5.2/../../../../powerpc64-ps3-elf/lib\libsysbase.a(getpid.o)
 .bss           0x00000000100137b0        0x0 c:/psdk3v2/ps3dev/ppu/bin/../lib/gcc/powerpc64-ps3-elf/4.5.2/../../../../powerpc64-ps3-elf/lib\libsysbase.a(kill.o)
 .bss           0x00000000100137b0        0x0 c:/psdk3v2/ps3dev/ppu/bin/../lib/gcc/powerpc64-ps3-elf/4.5.2/../../../../powerpc64-ps3-elf/lib\libc.a(lib_a-errno.o)
 .bss           0x00000000100137b0        0x0 c:/psdk3v2/ps3dev/ppu/bin/../lib/gcc/powerpc64-ps3-elf/4.5.2/../../../../powerpc64-ps3-elf/lib\libc.a(lib_a-sscanf.o)
 .bss           0x00000000100137b0        0x0 c:/psdk3v2/ps3dev/ppu/bin/../lib/gcc/powerpc64-ps3-elf/4.5.2/../../../../powerpc64-ps3-elf/lib\libc.a(lib_a-stdio.o)
 .bss           0x00000000100137b0        0x0 c:/psdk3v2/ps3dev/ppu/bin/../lib/gcc/powerpc64-ps3-elf/4.5.2/../../../../powerpc64-ps3-elf/lib\libc.a(lib_a-strncpy.o)
 .bss           0x00000000100137b0        0x0 c:/psdk3v2/ps3dev/ppu/bin/../lib/gcc/powerpc64-ps3-elf/4.5.2/../../../../powerpc64-ps3-elf/lib\libc.a(lib_a-svfscanf.o)
 .bss           0x00000000100137b0        0x0 c:/psdk3v2/ps3dev/ppu/bin/../lib/gcc/powerpc64-ps3-elf/4.5.2/../../../../powerpc64-ps3-elf/lib\libc.a(lib_a-ctype_.o)
 .bss           0x00000000100137b0        0x0 c:/psdk3v2/ps3dev/ppu/bin/../lib/gcc/powerpc64-ps3-elf/4.5.2/../../../../powerpc64-ps3-elf/lib\libc.a(lib_a-findfp.o)
 .bss.__sfp_lock
                0x00000000100137b0       0x18 c:/psdk3v2/ps3dev/ppu/bin/../lib/gcc/powerpc64-ps3-elf/4.5.2/../../../../powerpc64-ps3-elf/lib\libc.a(lib_a-findfp.o)
 .bss.__sinit_lock
                0x00000000100137c8       0x18 c:/psdk3v2/ps3dev/ppu/bin/../lib/gcc/powerpc64-ps3-elf/4.5.2/../../../../powerpc64-ps3-elf/lib\libc.a(lib_a-findfp.o)
 .bss           0x00000000100137e0        0x0 c:/psdk3v2/ps3dev/ppu/bin/../lib/gcc/powerpc64-ps3-elf/4.5.2/../../../../powerpc64-ps3-elf/lib\libc.a(lib_a-fwalk.o)
 .bss           0x00000000100137e0        0x0 c:/psdk3v2/ps3dev/ppu/bin/../lib/gcc/powerpc64-ps3-elf/4.5.2/../../../../powerpc64-ps3-elf/lib\libc.a(lib_a-iswspace.o)
 .bss           0x00000000100137e0        0x0 c:/psdk3v2/ps3dev/ppu/bin/../lib/gcc/powerpc64-ps3-elf/4.5.2/../../../../powerpc64-ps3-elf/lib\libc.a(lib_a-locale.o)
 .bss._PathLocale
                0x00000000100137e0        0x8 c:/psdk3v2/ps3dev/ppu/bin/../lib/gcc/powerpc64-ps3-elf/4.5.2/../../../../powerpc64-ps3-elf/lib\libc.a(lib_a-locale.o)
                0x00000000100137e0                _PathLocale
 .bss.__nlocale_changed
                0x00000000100137e8        0x4 c:/psdk3v2/ps3dev/ppu/bin/../lib/gcc/powerpc64-ps3-elf/4.5.2/../../../../powerpc64-ps3-elf/lib\libc.a(lib_a-locale.o)
                0x00000000100137e8                __nlocale_changed
 .bss.__mlocale_changed
                0x00000000100137ec        0x4 c:/psdk3v2/ps3dev/ppu/bin/../lib/gcc/powerpc64-ps3-elf/4.5.2/../../../../powerpc64-ps3-elf/lib\libc.a(lib_a-locale.o)
                0x00000000100137ec                __mlocale_changed
 .bss           0x00000000100137f0        0x0 c:/psdk3v2/ps3dev/ppu/bin/../lib/gcc/powerpc64-ps3-elf/4.5.2/../../../../powerpc64-ps3-elf/lib\libc.a(lib_a-mbrtowc.o)
 .bss           0x00000000100137f0        0x0 c:/psdk3v2/ps3dev/ppu/bin/../lib/gcc/powerpc64-ps3-elf/4.5.2/../../../../powerpc64-ps3-elf/lib\libc.a(lib_a-mbtowc_r.o)
 .bss           0x00000000100137f0        0x0 c:/psdk3v2/ps3dev/ppu/bin/../lib/gcc/powerpc64-ps3-elf/4.5.2/../../../../powerpc64-ps3-elf/lib\libc.a(lib_a-s_fpclassify.o)
 .bss           0x00000000100137f0        0x0 c:/psdk3v2/ps3dev/ppu/bin/../lib/gcc/powerpc64-ps3-elf/4.5.2/../../../../powerpc64-ps3-elf/lib\libc.a(lib_a-sccl.o)
 .bss           0x00000000100137f0        0x0 c:/psdk3v2/ps3dev/ppu/bin/../lib/gcc/powerpc64-ps3-elf/4.5.2/../../../../powerpc64-ps3-elf/lib\libc.a(lib_a-sf_nan.o)
 .bss           0x00000000100137f0        0x0 c:/psdk3v2/ps3dev/ppu/bin/../lib/gcc/powerpc64-ps3-elf/4.5.2/../../../../powerpc64-ps3-elf/lib\libc.a(lib_a-sprintf.o)
 .bss           0x00000000100137f0        0x0 c:/psdk3v2/ps3dev/ppu/bin/../lib/gcc/powerpc64-ps3-elf/4.5.2/../../../../powerpc64-ps3-elf/lib\libc.a(lib_a-strcmp.o)
 .bss           0x00000000100137f0        0x0 c:/psdk3v2/ps3dev/ppu/bin/../lib/gcc/powerpc64-ps3-elf/4.5.2/../../../../powerpc64-ps3-elf/lib\libc.a(lib_a-strtod.o)
 .bss           0x00000000100137f0        0x0 c:/psdk3v2/ps3dev/ppu/bin/../lib/gcc/powerpc64-ps3-elf/4.5.2/../../../../powerpc64-ps3-elf/lib\libc.a(lib_a-strtol.o)
 .bss           0x00000000100137f0        0x0 c:/psdk3v2/ps3dev/ppu/bin/../lib/gcc/powerpc64-ps3-elf/4.5.2/../../../../powerpc64-ps3-elf/lib\libc.a(lib_a-strtoll_r.o)
 .bss           0x00000000100137f0        0x0 c:/psdk3v2/ps3dev/ppu/bin/../lib/gcc/powerpc64-ps3-elf/4.5.2/../../../../powerpc64-ps3-elf/lib\libc.a(lib_a-strtoul.o)
 .bss           0x00000000100137f0        0x0 c:/psdk3v2/ps3dev/ppu/bin/../lib/gcc/powerpc64-ps3-elf/4.5.2/../../../../powerpc64-ps3-elf/lib\libc.a(lib_a-strtoull_r.o)
 .bss           0x00000000100137f0        0x0 c:/psdk3v2/ps3dev/ppu/bin/../lib/gcc/powerpc64-ps3-elf/4.5.2/../../../../powerpc64-ps3-elf/lib\libc.a(lib_a-svfiscanf.o)
 .bss           0x00000000100137f0        0x0 c:/psdk3v2/ps3dev/ppu/bin/../lib/gcc/powerpc64-ps3-elf/4.5.2/../../../../powerpc64-ps3-elf/lib\libc.a(lib_a-svfprintf.o)
 .bss           0x00000000100137f0        0x0 c:/psdk3v2/ps3dev/ppu/bin/../lib/gcc/powerpc64-ps3-elf/4.5.2/../../../../powerpc64-ps3-elf/lib\libc.a(lib_a-ungetc.o)
 .bss           0x00000000100137f0        0x0 c:/psdk3v2/ps3dev/ppu/bin/../lib/gcc/powerpc64-ps3-elf/4.5.2/../../../../powerpc64-ps3-elf/lib\libc.a(lib_a-dtoa.o)
 .bss           0x00000000100137f0        0x0 c:/psdk3v2/ps3dev/ppu/bin/../lib/gcc/powerpc64-ps3-elf/4.5.2/../../../../powerpc64-ps3-elf/lib\libc.a(lib_a-fclose.o)
 .bss           0x00000000100137f0        0x0 c:/psdk3v2/ps3dev/ppu/bin/../lib/gcc/powerpc64-ps3-elf/4.5.2/../../../../powerpc64-ps3-elf/lib\libc.a(lib_a-fflush.o)
 .bss           0x00000000100137f0        0x0 c:/psdk3v2/ps3dev/ppu/bin/../lib/gcc/powerpc64-ps3-elf/4.5.2/../../../../powerpc64-ps3-elf/lib\libc.a(lib_a-gdtoa-gethex.o)
 .bss           0x00000000100137f0        0x0 c:/psdk3v2/ps3dev/ppu/bin/../lib/gcc/powerpc64-ps3-elf/4.5.2/../../../../powerpc64-ps3-elf/lib\libc.a(lib_a-gdtoa-hexnan.o)
 .bss           0x00000000100137f0        0x0 c:/psdk3v2/ps3dev/ppu/bin/../lib/gcc/powerpc64-ps3-elf/4.5.2/../../../../powerpc64-ps3-elf/lib\libc.a(lib_a-memchr.o)
 .bss           0x00000000100137f0        0x0 c:/psdk3v2/ps3dev/ppu/bin/../lib/gcc/powerpc64-ps3-elf/4.5.2/../../../../powerpc64-ps3-elf/lib\libc.a(lib_a-memcpy.o)
 .bss           0x00000000100137f0        0x0 c:/psdk3v2/ps3dev/ppu/bin/../lib/gcc/powerpc64-ps3-elf/4.5.2/../../../../powerpc64-ps3-elf/lib\libc.a(lib_a-mprec.o)
 .bss           0x00000000100137f0        0x0 c:/psdk3v2/ps3dev/ppu/bin/../lib/gcc/powerpc64-ps3-elf/4.5.2/../../../../powerpc64-ps3-elf/lib\libc.a(lib_a-reallocr.o)
 .bss           0x00000000100137f0        0x0 c:/psdk3v2/ps3dev/ppu/bin/../lib/gcc/powerpc64-ps3-elf/4.5.2/../../../../powerpc64-ps3-elf/lib\libc.a(lib_a-svfiprintf.o)
 .bss           0x00000000100137f0        0x0 c:/psdk3v2/ps3dev/ppu/bin/../lib/gcc/powerpc64-ps3-elf/4.5.2/../../../../powerpc64-ps3-elf/lib\libc.a(lib_a-callocr.o)
 .bss           0x00000000100137f0        0x0 c:/psdk3v2/ps3dev/ppu/bin/../lib/gcc/powerpc64-ps3-elf/4.5.2/../../../../powerpc64-ps3-elf/lib\libc.a(lib_a-memmove.o)
 .bss           0x00000000100137f0        0x0 c:/psdk3v2/ps3dev/ppu/bin/../lib/gcc/powerpc64-ps3-elf/4.5.2/../../../../powerpc64-ps3-elf/lib\libsysbase.a(close.o)
 .bss           0x00000000100137f0        0x0 c:/psdk3v2/ps3dev/ppu/bin/../lib/gcc/powerpc64-ps3-elf/4.5.2/../../../../powerpc64-ps3-elf/lib\libsysbase.a(lseek.o)
 .bss           0x00000000100137f0        0x0 c:/psdk3v2/ps3dev/ppu/bin/../lib/gcc/powerpc64-ps3-elf/4.5.2/../../../../powerpc64-ps3-elf/lib\libsysbase.a(read.o)
 .bss           0x00000000100137f0        0x0 c:/psdk3v2/ps3dev/ppu/bin/../lib/gcc/powerpc64-ps3-elf/4.5.2/../../../../powerpc64-ps3-elf/lib\libsysbase.a(write.o)
 .bss           0x00000000100137f0        0x0 c:/psdk3v2/ps3dev/ppu/bin/../lib/gcc/powerpc64-ps3-elf/4.5.2/crtend.o
 .bss           0x00000000100137f0        0x0 c:/psdk3v2/ps3dev/ppu/bin/../lib/gcc/powerpc64-ps3-elf/4.5.2/../../../../powerpc64-ps3-elf/lib/lv2-crtn.o
 *(COMMON)
 COMMON         0x00000000100137f0      0x100 c:/psdk3v2/ps3dev/ppu/bin/../lib/gcc/powerpc64-ps3-elf/4.5.2/../../../../powerpc64-ps3-elf/lib\libc.a(lib_a-gdtoa-gethex.o)
                0x00000000100137f0                __hexdig
                0x00000000100138f0                . = ALIGN (0x8)

.iplt           0x00000000100138f0        0x0
 .iplt          0x0000000000000000        0x0 linker stubs
                0x0000000020000000                . = ALIGN (0x10000000)

.rsx_image
 *(.rsx_*)
                0x0000000020000000                _end = .
                0x0000000020000000                __end = .
                0x0000000020000000                PROVIDE (end, .)
                0x0000000020000000                . = ALIGN (0x8)

.stab
 *(.stab)

.stabstr
 *(.stabstr)

.stab.excl
 *(.stab.excl)

.stab.exclstr
 *(.stab.exclstr)

.stab.index
 *(.stab.index)

.stab.indexstr
 *(.stab.indexstr)

.comment        0x0000000000000000       0x11
 *(.comment)
 .comment       0x0000000000000000       0x11 c:/psdk3v2/ps3dev/ppu/bin/../lib/gcc/powerpc64-ps3-elf/4.5.2/crtbegin.o
                                         0x12 (size before relaxing)
 .comment       0x0000000000000000       0x12 c:/psdk3v2/ps3dev/ppu/bin/../lib/gcc/powerpc64-ps3-elf/4.5.2/../../../../powerpc64-ps3-elf/lib/lv2-crt0.o
 .comment       0x0000000000000000       0x12 loader.o
 .comment       0x0000000000000000       0x12 syscall8.o
 .comment       0x0000000000000000       0x12 c:/PSDK3v2/psl1ght/ppu/lib\liblv2.a(process_wrapper.o)
 .comment       0x0000000000000000       0x12 c:/PSDK3v2/psl1ght/ppu/lib\liblv2.a(sprx.o)
 .comment       0x0000000000000000       0x12 c:/psdk3v2/ps3dev/ppu/bin/../lib/gcc/powerpc64-ps3-elf/4.5.2/../../../../powerpc64-ps3-elf/lib\libsysbase.a(syscalls.o)
 .comment       0x0000000000000000       0x12 c:/psdk3v2/ps3dev/ppu/bin/../lib/gcc/powerpc64-ps3-elf/4.5.2/../../../../powerpc64-ps3-elf/lib\libc.a(lib_a-exit.o)
 .comment       0x0000000000000000       0x12 c:/psdk3v2/ps3dev/ppu/bin/../lib/gcc/powerpc64-ps3-elf/4.5.2/../../../../powerpc64-ps3-elf/lib\libc.a(lib_a-impure.o)
 .comment       0x0000000000000000       0x12 c:/psdk3v2/ps3dev/ppu/bin/../lib/gcc/powerpc64-ps3-elf/4.5.2/../../../../powerpc64-ps3-elf/lib\libc.a(lib_a-malloc.o)
 .comment       0x0000000000000000       0x12 c:/psdk3v2/ps3dev/ppu/bin/../lib/gcc/powerpc64-ps3-elf/4.5.2/../../../../powerpc64-ps3-elf/lib\libc.a(lib_a-mallocr.o)
 .comment       0x0000000000000000       0x12 c:/psdk3v2/ps3dev/ppu/bin/../lib/gcc/powerpc64-ps3-elf/4.5.2/../../../../powerpc64-ps3-elf/lib\libc.a(lib_a-mlock.o)
 .comment       0x0000000000000000       0x12 c:/psdk3v2/ps3dev/ppu/bin/../lib/gcc/powerpc64-ps3-elf/4.5.2/../../../../powerpc64-ps3-elf/lib\libc.a(lib_a-strcpy.o)
 .comment       0x0000000000000000       0x12 c:/psdk3v2/ps3dev/ppu/bin/../lib/gcc/powerpc64-ps3-elf/4.5.2/../../../../powerpc64-ps3-elf/lib\libc.a(lib_a-strlen.o)
 .comment       0x0000000000000000       0x12 c:/psdk3v2/ps3dev/ppu/bin/../lib/gcc/powerpc64-ps3-elf/4.5.2/../../../../powerpc64-ps3-elf/lib\libc.a(lib_a-strncmp.o)
 .comment       0x0000000000000000       0x12 c:/psdk3v2/ps3dev/ppu/bin/../lib/gcc/powerpc64-ps3-elf/4.5.2/../../../../powerpc64-ps3-elf/lib\libc.a(lib_a-__call_atexit.o)
 .comment       0x0000000000000000       0x12 c:/psdk3v2/ps3dev/ppu/bin/../lib/gcc/powerpc64-ps3-elf/4.5.2/../../../../powerpc64-ps3-elf/lib\libc.a(lib_a-freer.o)
 .comment       0x0000000000000000       0x12 c:/psdk3v2/ps3dev/ppu/bin/../lib/gcc/powerpc64-ps3-elf/4.5.2/../../../../powerpc64-ps3-elf/lib\libc.a(lib_a-getreent.o)
 .comment       0x0000000000000000       0x12 c:/psdk3v2/ps3dev/ppu/bin/../lib/gcc/powerpc64-ps3-elf/4.5.2/../../../../powerpc64-ps3-elf/lib\libc.a(lib_a-lock_recursive.o)
 .comment       0x0000000000000000       0x12 c:/psdk3v2/ps3dev/ppu/bin/../lib/gcc/powerpc64-ps3-elf/4.5.2/../../../../powerpc64-ps3-elf/lib\libc.a(lib_a-memset.o)
 .comment       0x0000000000000000       0x12 c:/psdk3v2/ps3dev/ppu/bin/../lib/gcc/powerpc64-ps3-elf/4.5.2/../../../../powerpc64-ps3-elf/lib\libc.a(lib_a-__atexit.o)
 .comment       0x0000000000000000       0x12 c:/psdk3v2/ps3dev/ppu/bin/../lib/gcc/powerpc64-ps3-elf/4.5.2/../../../../powerpc64-ps3-elf/lib\libc.a(lib_a-lock_internal.o)
 .comment       0x0000000000000000       0x12 c:/psdk3v2/ps3dev/ppu/bin/../lib/gcc/powerpc64-ps3-elf/4.5.2/../../../../powerpc64-ps3-elf/lib\libc.a(lib_a-abort.o)
 .comment       0x0000000000000000       0x12 c:/psdk3v2/ps3dev/ppu/bin/../lib/gcc/powerpc64-ps3-elf/4.5.2/../../../../powerpc64-ps3-elf/lib\libc.a(lib_a-signal.o)
 .comment       0x0000000000000000       0x12 c:/PSDK3v2/psl1ght/ppu/lib\librt.a(sbrk.o)
 .comment       0x0000000000000000       0x12 c:/PSDK3v2/psl1ght/ppu/lib\librt.a(exit.o)
 .comment       0x0000000000000000       0x12 c:/PSDK3v2/psl1ght/ppu/lib\librt.a(close.o)
 .comment       0x0000000000000000       0x12 c:/PSDK3v2/psl1ght/ppu/lib\librt.a(lseek.o)
 .comment       0x0000000000000000       0x12 c:/PSDK3v2/psl1ght/ppu/lib\librt.a(read.o)
 .comment       0x0000000000000000       0x12 c:/PSDK3v2/psl1ght/ppu/lib\librt.a(open.o)
 .comment       0x0000000000000000       0x12 c:/PSDK3v2/psl1ght/ppu/lib\librt.a(sleep.o)
 .comment       0x0000000000000000       0x12 c:/PSDK3v2/psl1ght/ppu/lib\librt.a(write.o)
 .comment       0x0000000000000000       0x12 c:/PSDK3v2/psl1ght/ppu/lib\librt.a(fstat.o)
 .comment       0x0000000000000000       0x12 c:/PSDK3v2/psl1ght/ppu/lib\librt.a(socket.o)
 .comment       0x0000000000000000       0x12 c:/PSDK3v2/psl1ght/ppu/lib\librt.a(lock.o)
 .comment       0x0000000000000000       0x12 c:/PSDK3v2/psl1ght/ppu/lib\librt.a(dirent.o)
 .comment       0x0000000000000000       0x12 c:/PSDK3v2/psl1ght/ppu/lib\librt.a(mkdir.o)
 .comment       0x0000000000000000       0x12 c:/PSDK3v2/psl1ght/ppu/lib\librt.a(times.o)
 .comment       0x0000000000000000       0x12 c:/PSDK3v2/psl1ght/ppu/lib\librt.a(umask.o)
 .comment       0x0000000000000000       0x12 c:/PSDK3v2/psl1ght/ppu/lib\librt.a(lv2errno.o)
 .comment       0x0000000000000000       0x12 c:/PSDK3v2/psl1ght/ppu/lib\librt.a(heap.o)
 .comment       0x0000000000000000       0x12 c:/PSDK3v2/psl1ght/ppu/lib\librt.a(chmod.o)
 .comment       0x0000000000000000       0x12 c:/PSDK3v2/psl1ght/ppu/lib\librt.a(rmdir.o)
 .comment       0x0000000000000000       0x12 c:/PSDK3v2/psl1ght/ppu/lib\librt.a(isatty.o)
 .comment       0x0000000000000000       0x12 c:/PSDK3v2/psl1ght/ppu/lib\librt.a(gettod.o)
 .comment       0x0000000000000000       0x12 c:/PSDK3v2/psl1ght/ppu/lib\librt.a(settod.o)
 .comment       0x0000000000000000       0x12 c:/psdk3v2/ps3dev/ppu/bin/../lib/gcc/powerpc64-ps3-elf/4.5.2/../../../../powerpc64-ps3-elf/lib\libsysbase.a(sbrk.o)
 .comment       0x0000000000000000       0x12 c:/psdk3v2/ps3dev/ppu/bin/../lib/gcc/powerpc64-ps3-elf/4.5.2/../../../../powerpc64-ps3-elf/lib\libsysbase.a(_exit.o)
 .comment       0x0000000000000000       0x12 c:/psdk3v2/ps3dev/ppu/bin/../lib/gcc/powerpc64-ps3-elf/4.5.2/../../../../powerpc64-ps3-elf/lib\libsysbase.a(lock.o)
 .comment       0x0000000000000000       0x12 c:/psdk3v2/ps3dev/ppu/bin/../lib/gcc/powerpc64-ps3-elf/4.5.2/../../../../powerpc64-ps3-elf/lib\libsysbase.a(getpid.o)
 .comment       0x0000000000000000       0x12 c:/psdk3v2/ps3dev/ppu/bin/../lib/gcc/powerpc64-ps3-elf/4.5.2/../../../../powerpc64-ps3-elf/lib\libsysbase.a(kill.o)
 .comment       0x0000000000000000       0x12 c:/psdk3v2/ps3dev/ppu/bin/../lib/gcc/powerpc64-ps3-elf/4.5.2/../../../../powerpc64-ps3-elf/lib\libc.a(lib_a-errno.o)
 .comment       0x0000000000000000       0x12 c:/psdk3v2/ps3dev/ppu/bin/../lib/gcc/powerpc64-ps3-elf/4.5.2/../../../../powerpc64-ps3-elf/lib\libc.a(lib_a-sscanf.o)
 .comment       0x0000000000000000       0x12 c:/psdk3v2/ps3dev/ppu/bin/../lib/gcc/powerpc64-ps3-elf/4.5.2/../../../../powerpc64-ps3-elf/lib\libc.a(lib_a-stdio.o)
 .comment       0x0000000000000000       0x12 c:/psdk3v2/ps3dev/ppu/bin/../lib/gcc/powerpc64-ps3-elf/4.5.2/../../../../powerpc64-ps3-elf/lib\libc.a(lib_a-strncpy.o)
 .comment       0x0000000000000000       0x12 c:/psdk3v2/ps3dev/ppu/bin/../lib/gcc/powerpc64-ps3-elf/4.5.2/../../../../powerpc64-ps3-elf/lib\libc.a(lib_a-svfscanf.o)
 .comment       0x0000000000000000       0x12 c:/psdk3v2/ps3dev/ppu/bin/../lib/gcc/powerpc64-ps3-elf/4.5.2/../../../../powerpc64-ps3-elf/lib\libc.a(lib_a-ctype_.o)
 .comment       0x0000000000000000       0x12 c:/psdk3v2/ps3dev/ppu/bin/../lib/gcc/powerpc64-ps3-elf/4.5.2/../../../../powerpc64-ps3-elf/lib\libc.a(lib_a-findfp.o)
 .comment       0x0000000000000000       0x12 c:/psdk3v2/ps3dev/ppu/bin/../lib/gcc/powerpc64-ps3-elf/4.5.2/../../../../powerpc64-ps3-elf/lib\libc.a(lib_a-fwalk.o)
 .comment       0x0000000000000000       0x12 c:/psdk3v2/ps3dev/ppu/bin/../lib/gcc/powerpc64-ps3-elf/4.5.2/../../../../powerpc64-ps3-elf/lib\libc.a(lib_a-iswspace.o)
 .comment       0x0000000000000000       0x12 c:/psdk3v2/ps3dev/ppu/bin/../lib/gcc/powerpc64-ps3-elf/4.5.2/../../../../powerpc64-ps3-elf/lib\libc.a(lib_a-locale.o)
 .comment       0x0000000000000000       0x12 c:/psdk3v2/ps3dev/ppu/bin/../lib/gcc/powerpc64-ps3-elf/4.5.2/../../../../powerpc64-ps3-elf/lib\libc.a(lib_a-mbrtowc.o)
 .comment       0x0000000000000000       0x12 c:/psdk3v2/ps3dev/ppu/bin/../lib/gcc/powerpc64-ps3-elf/4.5.2/../../../../powerpc64-ps3-elf/lib\libc.a(lib_a-mbtowc_r.o)
 .comment       0x0000000000000000       0x12 c:/psdk3v2/ps3dev/ppu/bin/../lib/gcc/powerpc64-ps3-elf/4.5.2/../../../../powerpc64-ps3-elf/lib\libc.a(lib_a-s_fpclassify.o)
 .comment       0x0000000000000000       0x12 c:/psdk3v2/ps3dev/ppu/bin/../lib/gcc/powerpc64-ps3-elf/4.5.2/../../../../powerpc64-ps3-elf/lib\libc.a(lib_a-sccl.o)
 .comment       0x0000000000000000       0x12 c:/psdk3v2/ps3dev/ppu/bin/../lib/gcc/powerpc64-ps3-elf/4.5.2/../../../../powerpc64-ps3-elf/lib\libc.a(lib_a-sf_nan.o)
 .comment       0x0000000000000000       0x12 c:/psdk3v2/ps3dev/ppu/bin/../lib/gcc/powerpc64-ps3-elf/4.5.2/../../../../powerpc64-ps3-elf/lib\libc.a(lib_a-sprintf.o)
 .comment       0x0000000000000000       0x12 c:/psdk3v2/ps3dev/ppu/bin/../lib/gcc/powerpc64-ps3-elf/4.5.2/../../../../powerpc64-ps3-elf/lib\libc.a(lib_a-strcmp.o)
 .comment       0x0000000000000000       0x12 c:/psdk3v2/ps3dev/ppu/bin/../lib/gcc/powerpc64-ps3-elf/4.5.2/../../../../powerpc64-ps3-elf/lib\libc.a(lib_a-strtod.o)
 .comment       0x0000000000000000       0x12 c:/psdk3v2/ps3dev/ppu/bin/../lib/gcc/powerpc64-ps3-elf/4.5.2/../../../../powerpc64-ps3-elf/lib\libc.a(lib_a-strtol.o)
 .comment       0x0000000000000000       0x12 c:/psdk3v2/ps3dev/ppu/bin/../lib/gcc/powerpc64-ps3-elf/4.5.2/../../../../powerpc64-ps3-elf/lib\libc.a(lib_a-strtoll_r.o)
 .comment       0x0000000000000000       0x12 c:/psdk3v2/ps3dev/ppu/bin/../lib/gcc/powerpc64-ps3-elf/4.5.2/../../../../powerpc64-ps3-elf/lib\libc.a(lib_a-strtoul.o)
 .comment       0x0000000000000000       0x12 c:/psdk3v2/ps3dev/ppu/bin/../lib/gcc/powerpc64-ps3-elf/4.5.2/../../../../powerpc64-ps3-elf/lib\libc.a(lib_a-strtoull_r.o)
 .comment       0x0000000000000000       0x12 c:/psdk3v2/ps3dev/ppu/bin/../lib/gcc/powerpc64-ps3-elf/4.5.2/../../../../powerpc64-ps3-elf/lib\libc.a(lib_a-svfiscanf.o)
 .comment       0x0000000000000000       0x12 c:/psdk3v2/ps3dev/ppu/bin/../lib/gcc/powerpc64-ps3-elf/4.5.2/../../../../powerpc64-ps3-elf/lib\libc.a(lib_a-svfprintf.o)
 .comment       0x0000000000000000       0x12 c:/psdk3v2/ps3dev/ppu/bin/../lib/gcc/powerpc64-ps3-elf/4.5.2/../../../../powerpc64-ps3-elf/lib\libc.a(lib_a-ungetc.o)
 .comment       0x0000000000000000       0x12 c:/psdk3v2/ps3dev/ppu/bin/../lib/gcc/powerpc64-ps3-elf/4.5.2/../../../../powerpc64-ps3-elf/lib\libc.a(lib_a-dtoa.o)
 .comment       0x0000000000000000       0x12 c:/psdk3v2/ps3dev/ppu/bin/../lib/gcc/powerpc64-ps3-elf/4.5.2/../../../../powerpc64-ps3-elf/lib\libc.a(lib_a-fclose.o)
 .comment       0x0000000000000000       0x12 c:/psdk3v2/ps3dev/ppu/bin/../lib/gcc/powerpc64-ps3-elf/4.5.2/../../../../powerpc64-ps3-elf/lib\libc.a(lib_a-fflush.o)
 .comment       0x0000000000000000       0x12 c:/psdk3v2/ps3dev/ppu/bin/../lib/gcc/powerpc64-ps3-elf/4.5.2/../../../../powerpc64-ps3-elf/lib\libc.a(lib_a-gdtoa-gethex.o)
 .comment       0x0000000000000000       0x12 c:/psdk3v2/ps3dev/ppu/bin/../lib/gcc/powerpc64-ps3-elf/4.5.2/../../../../powerpc64-ps3-elf/lib\libc.a(lib_a-gdtoa-hexnan.o)
 .comment       0x0000000000000000       0x12 c:/psdk3v2/ps3dev/ppu/bin/../lib/gcc/powerpc64-ps3-elf/4.5.2/../../../../powerpc64-ps3-elf/lib\libc.a(lib_a-memchr.o)
 .comment       0x0000000000000000       0x12 c:/psdk3v2/ps3dev/ppu/bin/../lib/gcc/powerpc64-ps3-elf/4.5.2/../../../../powerpc64-ps3-elf/lib\libc.a(lib_a-memcpy.o)
 .comment       0x0000000000000000       0x12 c:/psdk3v2/ps3dev/ppu/bin/../lib/gcc/powerpc64-ps3-elf/4.5.2/../../../../powerpc64-ps3-elf/lib\libc.a(lib_a-mprec.o)
 .comment       0x0000000000000000       0x12 c:/psdk3v2/ps3dev/ppu/bin/../lib/gcc/powerpc64-ps3-elf/4.5.2/../../../../powerpc64-ps3-elf/lib\libc.a(lib_a-reallocr.o)
 .comment       0x0000000000000000       0x12 c:/psdk3v2/ps3dev/ppu/bin/../lib/gcc/powerpc64-ps3-elf/4.5.2/../../../../powerpc64-ps3-elf/lib\libc.a(lib_a-svfiprintf.o)
 .comment       0x0000000000000000       0x12 c:/psdk3v2/ps3dev/ppu/bin/../lib/gcc/powerpc64-ps3-elf/4.5.2/../../../../powerpc64-ps3-elf/lib\libc.a(lib_a-callocr.o)
 .comment       0x0000000000000000       0x12 c:/psdk3v2/ps3dev/ppu/bin/../lib/gcc/powerpc64-ps3-elf/4.5.2/../../../../powerpc64-ps3-elf/lib\libc.a(lib_a-memmove.o)
 .comment       0x0000000000000000       0x12 c:/psdk3v2/ps3dev/ppu/bin/../lib/gcc/powerpc64-ps3-elf/4.5.2/../../../../powerpc64-ps3-elf/lib\libsysbase.a(close.o)
 .comment       0x0000000000000000       0x12 c:/psdk3v2/ps3dev/ppu/bin/../lib/gcc/powerpc64-ps3-elf/4.5.2/../../../../powerpc64-ps3-elf/lib\libsysbase.a(lseek.o)
 .comment       0x0000000000000000       0x12 c:/psdk3v2/ps3dev/ppu/bin/../lib/gcc/powerpc64-ps3-elf/4.5.2/../../../../powerpc64-ps3-elf/lib\libsysbase.a(read.o)
 .comment       0x0000000000000000       0x12 c:/psdk3v2/ps3dev/ppu/bin/../lib/gcc/powerpc64-ps3-elf/4.5.2/../../../../powerpc64-ps3-elf/lib\libsysbase.a(write.o)
 .comment       0x0000000000000000       0x12 c:/psdk3v2/ps3dev/ppu/bin/../lib/gcc/powerpc64-ps3-elf/4.5.2/crtend.o

.debug
 *(.debug)

.line
 *(.line)

.debug_srcinfo
 *(.debug_srcinfo)

.debug_sfnames
 *(.debug_sfnames)

.debug_aranges  0x0000000000000000     0x1080
 *(.debug_aranges)
 .debug_aranges
                0x0000000000000000       0x30 c:/psdk3v2/ps3dev/ppu/bin/../lib/gcc/powerpc64-ps3-elf/4.5.2/../../../../powerpc64-ps3-elf/lib\libc.a(lib_a-exit.o)
 .debug_aranges
                0x0000000000000030       0x40 c:/psdk3v2/ps3dev/ppu/bin/../lib/gcc/powerpc64-ps3-elf/4.5.2/../../../../powerpc64-ps3-elf/lib\libc.a(lib_a-malloc.o)
 .debug_aranges
                0x0000000000000070       0x30 c:/psdk3v2/ps3dev/ppu/bin/../lib/gcc/powerpc64-ps3-elf/4.5.2/../../../../powerpc64-ps3-elf/lib\libc.a(lib_a-mallocr.o)
 .debug_aranges
                0x00000000000000a0       0x40 c:/psdk3v2/ps3dev/ppu/bin/../lib/gcc/powerpc64-ps3-elf/4.5.2/../../../../powerpc64-ps3-elf/lib\libc.a(lib_a-mlock.o)
 .debug_aranges
                0x00000000000000e0       0x30 c:/psdk3v2/ps3dev/ppu/bin/../lib/gcc/powerpc64-ps3-elf/4.5.2/../../../../powerpc64-ps3-elf/lib\libc.a(lib_a-strcpy.o)
 .debug_aranges
                0x0000000000000110       0x30 c:/psdk3v2/ps3dev/ppu/bin/../lib/gcc/powerpc64-ps3-elf/4.5.2/../../../../powerpc64-ps3-elf/lib\libc.a(lib_a-strlen.o)
 .debug_aranges
                0x0000000000000140       0x30 c:/psdk3v2/ps3dev/ppu/bin/../lib/gcc/powerpc64-ps3-elf/4.5.2/../../../../powerpc64-ps3-elf/lib\libc.a(lib_a-strncmp.o)
 .debug_aranges
                0x0000000000000170       0x30 c:/psdk3v2/ps3dev/ppu/bin/../lib/gcc/powerpc64-ps3-elf/4.5.2/../../../../powerpc64-ps3-elf/lib\libc.a(lib_a-__call_atexit.o)
 .debug_aranges
                0x00000000000001a0       0x40 c:/psdk3v2/ps3dev/ppu/bin/../lib/gcc/powerpc64-ps3-elf/4.5.2/../../../../powerpc64-ps3-elf/lib\libc.a(lib_a-freer.o)
 .debug_aranges
                0x00000000000001e0       0x30 c:/psdk3v2/ps3dev/ppu/bin/../lib/gcc/powerpc64-ps3-elf/4.5.2/../../../../powerpc64-ps3-elf/lib\libc.a(lib_a-getreent.o)
 .debug_aranges
                0x0000000000000210       0x70 c:/psdk3v2/ps3dev/ppu/bin/../lib/gcc/powerpc64-ps3-elf/4.5.2/../../../../powerpc64-ps3-elf/lib\libc.a(lib_a-lock_recursive.o)
 .debug_aranges
                0x0000000000000280       0x30 c:/psdk3v2/ps3dev/ppu/bin/../lib/gcc/powerpc64-ps3-elf/4.5.2/../../../../powerpc64-ps3-elf/lib\libc.a(lib_a-memset.o)
 .debug_aranges
                0x00000000000002b0       0x30 c:/psdk3v2/ps3dev/ppu/bin/../lib/gcc/powerpc64-ps3-elf/4.5.2/../../../../powerpc64-ps3-elf/lib\libc.a(lib_a-__atexit.o)
 .debug_aranges
                0x00000000000002e0       0x40 c:/psdk3v2/ps3dev/ppu/bin/../lib/gcc/powerpc64-ps3-elf/4.5.2/../../../../powerpc64-ps3-elf/lib\libc.a(lib_a-lock_internal.o)
 .debug_aranges
                0x0000000000000320       0x30 c:/psdk3v2/ps3dev/ppu/bin/../lib/gcc/powerpc64-ps3-elf/4.5.2/../../../../powerpc64-ps3-elf/lib\libc.a(lib_a-abort.o)
 .debug_aranges
                0x0000000000000350       0xa0 c:/psdk3v2/ps3dev/ppu/bin/../lib/gcc/powerpc64-ps3-elf/4.5.2/../../../../powerpc64-ps3-elf/lib\libc.a(lib_a-signal.o)
 .debug_aranges
                0x00000000000003f0       0x30 c:/psdk3v2/ps3dev/ppu/bin/../lib/gcc/powerpc64-ps3-elf/4.5.2/../../../../powerpc64-ps3-elf/lib\libsysbase.a(sbrk.o)
 .debug_aranges
                0x0000000000000420       0x30 c:/psdk3v2/ps3dev/ppu/bin/../lib/gcc/powerpc64-ps3-elf/4.5.2/../../../../powerpc64-ps3-elf/lib\libsysbase.a(_exit.o)
 .debug_aranges
                0x0000000000000450       0x70 c:/psdk3v2/ps3dev/ppu/bin/../lib/gcc/powerpc64-ps3-elf/4.5.2/../../../../powerpc64-ps3-elf/lib\libsysbase.a(lock.o)
 .debug_aranges
                0x00000000000004c0       0x30 c:/psdk3v2/ps3dev/ppu/bin/../lib/gcc/powerpc64-ps3-elf/4.5.2/../../../../powerpc64-ps3-elf/lib\libsysbase.a(getpid.o)
 .debug_aranges
                0x00000000000004f0       0x30 c:/psdk3v2/ps3dev/ppu/bin/../lib/gcc/powerpc64-ps3-elf/4.5.2/../../../../powerpc64-ps3-elf/lib\libsysbase.a(kill.o)
 .debug_aranges
                0x0000000000000520       0x30 c:/psdk3v2/ps3dev/ppu/bin/../lib/gcc/powerpc64-ps3-elf/4.5.2/../../../../powerpc64-ps3-elf/lib\libc.a(lib_a-errno.o)
 .debug_aranges
                0x0000000000000550       0x40 c:/psdk3v2/ps3dev/ppu/bin/../lib/gcc/powerpc64-ps3-elf/4.5.2/../../../../powerpc64-ps3-elf/lib\libc.a(lib_a-sscanf.o)
 .debug_aranges
                0x0000000000000590       0x70 c:/psdk3v2/ps3dev/ppu/bin/../lib/gcc/powerpc64-ps3-elf/4.5.2/../../../../powerpc64-ps3-elf/lib\libc.a(lib_a-stdio.o)
 .debug_aranges
                0x0000000000000600       0x30 c:/psdk3v2/ps3dev/ppu/bin/../lib/gcc/powerpc64-ps3-elf/4.5.2/../../../../powerpc64-ps3-elf/lib\libc.a(lib_a-strncpy.o)
 .debug_aranges
                0x0000000000000630       0x30 c:/psdk3v2/ps3dev/ppu/bin/../lib/gcc/powerpc64-ps3-elf/4.5.2/../../../../powerpc64-ps3-elf/lib\libc.a(lib_a-svfscanf.o)
 .debug_aranges
                0x0000000000000660       0xf0 c:/psdk3v2/ps3dev/ppu/bin/../lib/gcc/powerpc64-ps3-elf/4.5.2/../../../../powerpc64-ps3-elf/lib\libc.a(lib_a-findfp.o)
 .debug_aranges
                0x0000000000000750       0x40 c:/psdk3v2/ps3dev/ppu/bin/../lib/gcc/powerpc64-ps3-elf/4.5.2/../../../../powerpc64-ps3-elf/lib\libc.a(lib_a-fwalk.o)
 .debug_aranges
                0x0000000000000790       0x30 c:/psdk3v2/ps3dev/ppu/bin/../lib/gcc/powerpc64-ps3-elf/4.5.2/../../../../powerpc64-ps3-elf/lib\libc.a(lib_a-iswspace.o)
 .debug_aranges
                0x00000000000007c0       0xa0 c:/psdk3v2/ps3dev/ppu/bin/../lib/gcc/powerpc64-ps3-elf/4.5.2/../../../../powerpc64-ps3-elf/lib\libc.a(lib_a-locale.o)
 .debug_aranges
                0x0000000000000860       0x40 c:/psdk3v2/ps3dev/ppu/bin/../lib/gcc/powerpc64-ps3-elf/4.5.2/../../../../powerpc64-ps3-elf/lib\libc.a(lib_a-mbrtowc.o)
 .debug_aranges
                0x00000000000008a0       0x40 c:/psdk3v2/ps3dev/ppu/bin/../lib/gcc/powerpc64-ps3-elf/4.5.2/../../../../powerpc64-ps3-elf/lib\libc.a(lib_a-mbtowc_r.o)
 .debug_aranges
                0x00000000000008e0       0x30 c:/psdk3v2/ps3dev/ppu/bin/../lib/gcc/powerpc64-ps3-elf/4.5.2/../../../../powerpc64-ps3-elf/lib\libc.a(lib_a-s_fpclassify.o)
 .debug_aranges
                0x0000000000000910       0x30 c:/psdk3v2/ps3dev/ppu/bin/../lib/gcc/powerpc64-ps3-elf/4.5.2/../../../../powerpc64-ps3-elf/lib\libc.a(lib_a-sccl.o)
 .debug_aranges
                0x0000000000000940       0x30 c:/psdk3v2/ps3dev/ppu/bin/../lib/gcc/powerpc64-ps3-elf/4.5.2/../../../../powerpc64-ps3-elf/lib\libc.a(lib_a-sf_nan.o)
 .debug_aranges
                0x0000000000000970       0x40 c:/psdk3v2/ps3dev/ppu/bin/../lib/gcc/powerpc64-ps3-elf/4.5.2/../../../../powerpc64-ps3-elf/lib\libc.a(lib_a-sprintf.o)
 .debug_aranges
                0x00000000000009b0       0x30 c:/psdk3v2/ps3dev/ppu/bin/../lib/gcc/powerpc64-ps3-elf/4.5.2/../../../../powerpc64-ps3-elf/lib\libc.a(lib_a-strcmp.o)
 .debug_aranges
                0x00000000000009e0       0x60 c:/psdk3v2/ps3dev/ppu/bin/../lib/gcc/powerpc64-ps3-elf/4.5.2/../../../../powerpc64-ps3-elf/lib\libc.a(lib_a-strtod.o)
 .debug_aranges
                0x0000000000000a40       0x40 c:/psdk3v2/ps3dev/ppu/bin/../lib/gcc/powerpc64-ps3-elf/4.5.2/../../../../powerpc64-ps3-elf/lib\libc.a(lib_a-strtol.o)
 .debug_aranges
                0x0000000000000a80       0x30 c:/psdk3v2/ps3dev/ppu/bin/../lib/gcc/powerpc64-ps3-elf/4.5.2/../../../../powerpc64-ps3-elf/lib\libc.a(lib_a-strtoll_r.o)
 .debug_aranges
                0x0000000000000ab0       0x40 c:/psdk3v2/ps3dev/ppu/bin/../lib/gcc/powerpc64-ps3-elf/4.5.2/../../../../powerpc64-ps3-elf/lib\libc.a(lib_a-strtoul.o)
 .debug_aranges
                0x0000000000000af0       0x30 c:/psdk3v2/ps3dev/ppu/bin/../lib/gcc/powerpc64-ps3-elf/4.5.2/../../../../powerpc64-ps3-elf/lib\libc.a(lib_a-strtoull_r.o)
 .debug_aranges
                0x0000000000000b20       0x60 c:/psdk3v2/ps3dev/ppu/bin/../lib/gcc/powerpc64-ps3-elf/4.5.2/../../../../powerpc64-ps3-elf/lib\libc.a(lib_a-svfiscanf.o)
 .debug_aranges
                0x0000000000000b80       0x30 c:/psdk3v2/ps3dev/ppu/bin/../lib/gcc/powerpc64-ps3-elf/4.5.2/../../../../powerpc64-ps3-elf/lib\libc.a(lib_a-svfprintf.o)
 .debug_aranges
                0x0000000000000bb0       0x50 c:/psdk3v2/ps3dev/ppu/bin/../lib/gcc/powerpc64-ps3-elf/4.5.2/../../../../powerpc64-ps3-elf/lib\libc.a(lib_a-ungetc.o)
 .debug_aranges
                0x0000000000000c00       0x40 c:/psdk3v2/ps3dev/ppu/bin/../lib/gcc/powerpc64-ps3-elf/4.5.2/../../../../powerpc64-ps3-elf/lib\libc.a(lib_a-dtoa.o)
 .debug_aranges
                0x0000000000000c40       0x40 c:/psdk3v2/ps3dev/ppu/bin/../lib/gcc/powerpc64-ps3-elf/4.5.2/../../../../powerpc64-ps3-elf/lib\libc.a(lib_a-fclose.o)
 .debug_aranges
                0x0000000000000c80       0x40 c:/psdk3v2/ps3dev/ppu/bin/../lib/gcc/powerpc64-ps3-elf/4.5.2/../../../../powerpc64-ps3-elf/lib\libc.a(lib_a-fflush.o)
 .debug_aranges
                0x0000000000000cc0       0x50 c:/psdk3v2/ps3dev/ppu/bin/../lib/gcc/powerpc64-ps3-elf/4.5.2/../../../../powerpc64-ps3-elf/lib\libc.a(lib_a-gdtoa-gethex.o)
 .debug_aranges
                0x0000000000000d10       0x30 c:/psdk3v2/ps3dev/ppu/bin/../lib/gcc/powerpc64-ps3-elf/4.5.2/../../../../powerpc64-ps3-elf/lib\libc.a(lib_a-gdtoa-hexnan.o)
 .debug_aranges
                0x0000000000000d40       0x30 c:/psdk3v2/ps3dev/ppu/bin/../lib/gcc/powerpc64-ps3-elf/4.5.2/../../../../powerpc64-ps3-elf/lib\libc.a(lib_a-memchr.o)
 .debug_aranges
                0x0000000000000d70       0x30 c:/psdk3v2/ps3dev/ppu/bin/../lib/gcc/powerpc64-ps3-elf/4.5.2/../../../../powerpc64-ps3-elf/lib\libc.a(lib_a-memcpy.o)
 .debug_aranges
                0x0000000000000da0      0x150 c:/psdk3v2/ps3dev/ppu/bin/../lib/gcc/powerpc64-ps3-elf/4.5.2/../../../../powerpc64-ps3-elf/lib\libc.a(lib_a-mprec.o)
 .debug_aranges
                0x0000000000000ef0       0x30 c:/psdk3v2/ps3dev/ppu/bin/../lib/gcc/powerpc64-ps3-elf/4.5.2/../../../../powerpc64-ps3-elf/lib\libc.a(lib_a-reallocr.o)
 .debug_aranges
                0x0000000000000f20       0x40 c:/psdk3v2/ps3dev/ppu/bin/../lib/gcc/powerpc64-ps3-elf/4.5.2/../../../../powerpc64-ps3-elf/lib\libc.a(lib_a-svfiprintf.o)
 .debug_aranges
                0x0000000000000f60       0x30 c:/psdk3v2/ps3dev/ppu/bin/../lib/gcc/powerpc64-ps3-elf/4.5.2/../../../../powerpc64-ps3-elf/lib\libc.a(lib_a-callocr.o)
 .debug_aranges
                0x0000000000000f90       0x30 c:/psdk3v2/ps3dev/ppu/bin/../lib/gcc/powerpc64-ps3-elf/4.5.2/../../../../powerpc64-ps3-elf/lib\libc.a(lib_a-memmove.o)
 .debug_aranges
                0x0000000000000fc0       0x30 c:/psdk3v2/ps3dev/ppu/bin/../lib/gcc/powerpc64-ps3-elf/4.5.2/../../../../powerpc64-ps3-elf/lib\libsysbase.a(close.o)
 .debug_aranges
                0x0000000000000ff0       0x30 c:/psdk3v2/ps3dev/ppu/bin/../lib/gcc/powerpc64-ps3-elf/4.5.2/../../../../powerpc64-ps3-elf/lib\libsysbase.a(lseek.o)
 .debug_aranges
                0x0000000000001020       0x30 c:/psdk3v2/ps3dev/ppu/bin/../lib/gcc/powerpc64-ps3-elf/4.5.2/../../../../powerpc64-ps3-elf/lib\libsysbase.a(read.o)
 .debug_aranges
                0x0000000000001050       0x30 c:/psdk3v2/ps3dev/ppu/bin/../lib/gcc/powerpc64-ps3-elf/4.5.2/../../../../powerpc64-ps3-elf/lib\libsysbase.a(write.o)

.debug_pubnames
                0x0000000000000000      0xe6b
 *(.debug_pubnames)
 .debug_pubnames
                0x0000000000000000       0x21 c:/psdk3v2/ps3dev/ppu/bin/../lib/gcc/powerpc64-ps3-elf/4.5.2/../../../../powerpc64-ps3-elf/lib\libsysbase.a(syscalls.o)
 .debug_pubnames
                0x0000000000000021       0x1b c:/psdk3v2/ps3dev/ppu/bin/../lib/gcc/powerpc64-ps3-elf/4.5.2/../../../../powerpc64-ps3-elf/lib\libc.a(lib_a-exit.o)
 .debug_pubnames
                0x000000000000003c       0x39 c:/psdk3v2/ps3dev/ppu/bin/../lib/gcc/powerpc64-ps3-elf/4.5.2/../../../../powerpc64-ps3-elf/lib\libc.a(lib_a-impure.o)
 .debug_pubnames
                0x0000000000000075       0x26 c:/psdk3v2/ps3dev/ppu/bin/../lib/gcc/powerpc64-ps3-elf/4.5.2/../../../../powerpc64-ps3-elf/lib\libc.a(lib_a-malloc.o)
 .debug_pubnames
                0x000000000000009b       0xce c:/psdk3v2/ps3dev/ppu/bin/../lib/gcc/powerpc64-ps3-elf/4.5.2/../../../../powerpc64-ps3-elf/lib\libc.a(lib_a-mallocr.o)
 .debug_pubnames
                0x0000000000000169       0x38 c:/psdk3v2/ps3dev/ppu/bin/../lib/gcc/powerpc64-ps3-elf/4.5.2/../../../../powerpc64-ps3-elf/lib\libc.a(lib_a-mlock.o)
 .debug_pubnames
                0x00000000000001a1       0x1d c:/psdk3v2/ps3dev/ppu/bin/../lib/gcc/powerpc64-ps3-elf/4.5.2/../../../../powerpc64-ps3-elf/lib\libc.a(lib_a-strcpy.o)
 .debug_pubnames
                0x00000000000001be       0x1d c:/psdk3v2/ps3dev/ppu/bin/../lib/gcc/powerpc64-ps3-elf/4.5.2/../../../../powerpc64-ps3-elf/lib\libc.a(lib_a-strlen.o)
 .debug_pubnames
                0x00000000000001db       0x1e c:/psdk3v2/ps3dev/ppu/bin/../lib/gcc/powerpc64-ps3-elf/4.5.2/../../../../powerpc64-ps3-elf/lib\libc.a(lib_a-strncmp.o)
 .debug_pubnames
                0x00000000000001f9       0x27 c:/psdk3v2/ps3dev/ppu/bin/../lib/gcc/powerpc64-ps3-elf/4.5.2/../../../../powerpc64-ps3-elf/lib\libc.a(lib_a-__call_atexit.o)
 .debug_pubnames
                0x0000000000000220       0x31 c:/psdk3v2/ps3dev/ppu/bin/../lib/gcc/powerpc64-ps3-elf/4.5.2/../../../../powerpc64-ps3-elf/lib\libc.a(lib_a-freer.o)
 .debug_pubnames
                0x0000000000000251       0x21 c:/psdk3v2/ps3dev/ppu/bin/../lib/gcc/powerpc64-ps3-elf/4.5.2/../../../../powerpc64-ps3-elf/lib\libc.a(lib_a-getreent.o)
 .debug_pubnames
                0x0000000000000272       0xbb c:/psdk3v2/ps3dev/ppu/bin/../lib/gcc/powerpc64-ps3-elf/4.5.2/../../../../powerpc64-ps3-elf/lib\libc.a(lib_a-lock_recursive.o)
 .debug_pubnames
                0x000000000000032d       0x1d c:/psdk3v2/ps3dev/ppu/bin/../lib/gcc/powerpc64-ps3-elf/4.5.2/../../../../powerpc64-ps3-elf/lib\libc.a(lib_a-memset.o)
 .debug_pubnames
                0x000000000000034a       0x3c c:/psdk3v2/ps3dev/ppu/bin/../lib/gcc/powerpc64-ps3-elf/4.5.2/../../../../powerpc64-ps3-elf/lib\libc.a(lib_a-__atexit.o)
 .debug_pubnames
                0x0000000000000386       0x30 c:/psdk3v2/ps3dev/ppu/bin/../lib/gcc/powerpc64-ps3-elf/4.5.2/../../../../powerpc64-ps3-elf/lib\libc.a(lib_a-lock_internal.o)
 .debug_pubnames
                0x00000000000003b6       0x1c c:/psdk3v2/ps3dev/ppu/bin/../lib/gcc/powerpc64-ps3-elf/4.5.2/../../../../powerpc64-ps3-elf/lib\libc.a(lib_a-abort.o)
 .debug_pubnames
                0x00000000000003d2       0x86 c:/psdk3v2/ps3dev/ppu/bin/../lib/gcc/powerpc64-ps3-elf/4.5.2/../../../../powerpc64-ps3-elf/lib\libc.a(lib_a-signal.o)
 .debug_pubnames
                0x0000000000000458       0x1e c:/psdk3v2/ps3dev/ppu/bin/../lib/gcc/powerpc64-ps3-elf/4.5.2/../../../../powerpc64-ps3-elf/lib\libsysbase.a(sbrk.o)
 .debug_pubnames
                0x0000000000000476       0x1c c:/psdk3v2/ps3dev/ppu/bin/../lib/gcc/powerpc64-ps3-elf/4.5.2/../../../../powerpc64-ps3-elf/lib\libsysbase.a(_exit.o)
 .debug_pubnames
                0x0000000000000492       0x85 c:/psdk3v2/ps3dev/ppu/bin/../lib/gcc/powerpc64-ps3-elf/4.5.2/../../../../powerpc64-ps3-elf/lib\libsysbase.a(lock.o)
 .debug_pubnames
                0x0000000000000517       0x20 c:/psdk3v2/ps3dev/ppu/bin/../lib/gcc/powerpc64-ps3-elf/4.5.2/../../../../powerpc64-ps3-elf/lib\libsysbase.a(getpid.o)
 .debug_pubnames
                0x0000000000000537       0x1e c:/psdk3v2/ps3dev/ppu/bin/../lib/gcc/powerpc64-ps3-elf/4.5.2/../../../../powerpc64-ps3-elf/lib\libsysbase.a(kill.o)
 .debug_pubnames
                0x0000000000000555       0x1e c:/psdk3v2/ps3dev/ppu/bin/../lib/gcc/powerpc64-ps3-elf/4.5.2/../../../../powerpc64-ps3-elf/lib\libc.a(lib_a-errno.o)
 .debug_pubnames
                0x0000000000000573       0x2b c:/psdk3v2/ps3dev/ppu/bin/../lib/gcc/powerpc64-ps3-elf/4.5.2/../../../../powerpc64-ps3-elf/lib\libc.a(lib_a-sscanf.o)
 .debug_pubnames
                0x000000000000059e       0x53 c:/psdk3v2/ps3dev/ppu/bin/../lib/gcc/powerpc64-ps3-elf/4.5.2/../../../../powerpc64-ps3-elf/lib\libc.a(lib_a-stdio.o)
 .debug_pubnames
                0x00000000000005f1       0x1e c:/psdk3v2/ps3dev/ppu/bin/../lib/gcc/powerpc64-ps3-elf/4.5.2/../../../../powerpc64-ps3-elf/lib\libc.a(lib_a-strncpy.o)
 .debug_pubnames
                0x000000000000060f       0x24 c:/psdk3v2/ps3dev/ppu/bin/../lib/gcc/powerpc64-ps3-elf/4.5.2/../../../../powerpc64-ps3-elf/lib\libc.a(lib_a-svfscanf.o)
 .debug_pubnames
                0x0000000000000633       0x30 c:/psdk3v2/ps3dev/ppu/bin/../lib/gcc/powerpc64-ps3-elf/4.5.2/../../../../powerpc64-ps3-elf/lib\libc.a(lib_a-ctype_.o)
 .debug_pubnames
                0x0000000000000663       0xdb c:/psdk3v2/ps3dev/ppu/bin/../lib/gcc/powerpc64-ps3-elf/4.5.2/../../../../powerpc64-ps3-elf/lib\libc.a(lib_a-findfp.o)
 .debug_pubnames
                0x000000000000073e       0x2e c:/psdk3v2/ps3dev/ppu/bin/../lib/gcc/powerpc64-ps3-elf/4.5.2/../../../../powerpc64-ps3-elf/lib\libc.a(lib_a-fwalk.o)
 .debug_pubnames
                0x000000000000076c       0x1f c:/psdk3v2/ps3dev/ppu/bin/../lib/gcc/powerpc64-ps3-elf/4.5.2/../../../../powerpc64-ps3-elf/lib\libc.a(lib_a-iswspace.o)
 .debug_pubnames
                0x000000000000078b       0xfa c:/psdk3v2/ps3dev/ppu/bin/../lib/gcc/powerpc64-ps3-elf/4.5.2/../../../../powerpc64-ps3-elf/lib\libc.a(lib_a-locale.o)
 .debug_pubnames
                0x0000000000000885       0x2d c:/psdk3v2/ps3dev/ppu/bin/../lib/gcc/powerpc64-ps3-elf/4.5.2/../../../../powerpc64-ps3-elf/lib\libc.a(lib_a-mbrtowc.o)
 .debug_pubnames
                0x00000000000008b2       0x40 c:/psdk3v2/ps3dev/ppu/bin/../lib/gcc/powerpc64-ps3-elf/4.5.2/../../../../powerpc64-ps3-elf/lib\libc.a(lib_a-mbtowc_r.o)
 .debug_pubnames
                0x00000000000008f2       0x24 c:/psdk3v2/ps3dev/ppu/bin/../lib/gcc/powerpc64-ps3-elf/4.5.2/../../../../powerpc64-ps3-elf/lib\libc.a(lib_a-s_fpclassify.o)
 .debug_pubnames
                0x0000000000000916       0x1d c:/psdk3v2/ps3dev/ppu/bin/../lib/gcc/powerpc64-ps3-elf/4.5.2/../../../../powerpc64-ps3-elf/lib\libc.a(lib_a-sccl.o)
 .debug_pubnames
                0x0000000000000933       0x1b c:/psdk3v2/ps3dev/ppu/bin/../lib/gcc/powerpc64-ps3-elf/4.5.2/../../../../powerpc64-ps3-elf/lib\libc.a(lib_a-sf_nan.o)
 .debug_pubnames
                0x000000000000094e       0x2d c:/psdk3v2/ps3dev/ppu/bin/../lib/gcc/powerpc64-ps3-elf/4.5.2/../../../../powerpc64-ps3-elf/lib\libc.a(lib_a-sprintf.o)
 .debug_pubnames
                0x000000000000097b       0x1d c:/psdk3v2/ps3dev/ppu/bin/../lib/gcc/powerpc64-ps3-elf/4.5.2/../../../../powerpc64-ps3-elf/lib\libc.a(lib_a-strcmp.o)
 .debug_pubnames
                0x0000000000000998       0x36 c:/psdk3v2/ps3dev/ppu/bin/../lib/gcc/powerpc64-ps3-elf/4.5.2/../../../../powerpc64-ps3-elf/lib\libc.a(lib_a-strtod.o)
 .debug_pubnames
                0x00000000000009ce       0x2b c:/psdk3v2/ps3dev/ppu/bin/../lib/gcc/powerpc64-ps3-elf/4.5.2/../../../../powerpc64-ps3-elf/lib\libc.a(lib_a-strtol.o)
 .debug_pubnames
                0x00000000000009f9       0x21 c:/psdk3v2/ps3dev/ppu/bin/../lib/gcc/powerpc64-ps3-elf/4.5.2/../../../../powerpc64-ps3-elf/lib\libc.a(lib_a-strtoll_r.o)
 .debug_pubnames
                0x0000000000000a1a       0x2d c:/psdk3v2/ps3dev/ppu/bin/../lib/gcc/powerpc64-ps3-elf/4.5.2/../../../../powerpc64-ps3-elf/lib\libc.a(lib_a-strtoul.o)
 .debug_pubnames
                0x0000000000000a47       0x22 c:/psdk3v2/ps3dev/ppu/bin/../lib/gcc/powerpc64-ps3-elf/4.5.2/../../../../powerpc64-ps3-elf/lib\libc.a(lib_a-strtoull_r.o)
 .debug_pubnames
                0x0000000000000a69       0x53 c:/psdk3v2/ps3dev/ppu/bin/../lib/gcc/powerpc64-ps3-elf/4.5.2/../../../../powerpc64-ps3-elf/lib\libc.a(lib_a-svfiscanf.o)
 .debug_pubnames
                0x0000000000000abc       0x23 c:/psdk3v2/ps3dev/ppu/bin/../lib/gcc/powerpc64-ps3-elf/4.5.2/../../../../powerpc64-ps3-elf/lib\libc.a(lib_a-svfprintf.o)
 .debug_pubnames
                0x0000000000000adf       0x39 c:/psdk3v2/ps3dev/ppu/bin/../lib/gcc/powerpc64-ps3-elf/4.5.2/../../../../powerpc64-ps3-elf/lib\libc.a(lib_a-ungetc.o)
 .debug_pubnames
                0x0000000000000b18       0x1e c:/psdk3v2/ps3dev/ppu/bin/../lib/gcc/powerpc64-ps3-elf/4.5.2/../../../../powerpc64-ps3-elf/lib\libc.a(lib_a-dtoa.o)
 .debug_pubnames
                0x0000000000000b36       0x2b c:/psdk3v2/ps3dev/ppu/bin/../lib/gcc/powerpc64-ps3-elf/4.5.2/../../../../powerpc64-ps3-elf/lib\libc.a(lib_a-fclose.o)
 .debug_pubnames
                0x0000000000000b61       0x2b c:/psdk3v2/ps3dev/ppu/bin/../lib/gcc/powerpc64-ps3-elf/4.5.2/../../../../powerpc64-ps3-elf/lib\libc.a(lib_a-fflush.o)
 .debug_pubnames
                0x0000000000000b8c       0x3e c:/psdk3v2/ps3dev/ppu/bin/../lib/gcc/powerpc64-ps3-elf/4.5.2/../../../../powerpc64-ps3-elf/lib\libc.a(lib_a-gdtoa-gethex.o)
 .debug_pubnames
                0x0000000000000bca       0x1f c:/psdk3v2/ps3dev/ppu/bin/../lib/gcc/powerpc64-ps3-elf/4.5.2/../../../../powerpc64-ps3-elf/lib\libc.a(lib_a-gdtoa-hexnan.o)
 .debug_pubnames
                0x0000000000000be9       0x1d c:/psdk3v2/ps3dev/ppu/bin/../lib/gcc/powerpc64-ps3-elf/4.5.2/../../../../powerpc64-ps3-elf/lib\libc.a(lib_a-memchr.o)
 .debug_pubnames
                0x0000000000000c06       0x1d c:/psdk3v2/ps3dev/ppu/bin/../lib/gcc/powerpc64-ps3-elf/4.5.2/../../../../powerpc64-ps3-elf/lib\libc.a(lib_a-memcpy.o)
 .debug_pubnames
                0x0000000000000c23      0x13a c:/psdk3v2/ps3dev/ppu/bin/../lib/gcc/powerpc64-ps3-elf/4.5.2/../../../../powerpc64-ps3-elf/lib\libc.a(lib_a-mprec.o)
 .debug_pubnames
                0x0000000000000d5d       0x21 c:/psdk3v2/ps3dev/ppu/bin/../lib/gcc/powerpc64-ps3-elf/4.5.2/../../../../powerpc64-ps3-elf/lib\libc.a(lib_a-reallocr.o)
 .debug_pubnames
                0x0000000000000d7e       0x34 c:/psdk3v2/ps3dev/ppu/bin/../lib/gcc/powerpc64-ps3-elf/4.5.2/../../../../powerpc64-ps3-elf/lib\libc.a(lib_a-svfiprintf.o)
 .debug_pubnames
                0x0000000000000db2       0x20 c:/psdk3v2/ps3dev/ppu/bin/../lib/gcc/powerpc64-ps3-elf/4.5.2/../../../../powerpc64-ps3-elf/lib\libc.a(lib_a-callocr.o)
 .debug_pubnames
                0x0000000000000dd2       0x1e c:/psdk3v2/ps3dev/ppu/bin/../lib/gcc/powerpc64-ps3-elf/4.5.2/../../../../powerpc64-ps3-elf/lib\libc.a(lib_a-memmove.o)
 .debug_pubnames
                0x0000000000000df0       0x1f c:/psdk3v2/ps3dev/ppu/bin/../lib/gcc/powerpc64-ps3-elf/4.5.2/../../../../powerpc64-ps3-elf/lib\libsysbase.a(close.o)
 .debug_pubnames
                0x0000000000000e0f       0x1f c:/psdk3v2/ps3dev/ppu/bin/../lib/gcc/powerpc64-ps3-elf/4.5.2/../../../../powerpc64-ps3-elf/lib\libsysbase.a(lseek.o)
 .debug_pubnames
                0x0000000000000e2e       0x1e c:/psdk3v2/ps3dev/ppu/bin/../lib/gcc/powerpc64-ps3-elf/4.5.2/../../../../powerpc64-ps3-elf/lib\libsysbase.a(read.o)
 .debug_pubnames
                0x0000000000000e4c       0x1f c:/psdk3v2/ps3dev/ppu/bin/../lib/gcc/powerpc64-ps3-elf/4.5.2/../../../../powerpc64-ps3-elf/lib\libsysbase.a(write.o)

.debug_info     0x0000000000000000    0x28c6f
 *(.debug_info .gnu.linkonce.wi.*)
 .debug_info    0x0000000000000000     0x1535 c:/psdk3v2/ps3dev/ppu/bin/../lib/gcc/powerpc64-ps3-elf/4.5.2/../../../../powerpc64-ps3-elf/lib\libsysbase.a(syscalls.o)
 .debug_info    0x0000000000001535      0xa09 c:/psdk3v2/ps3dev/ppu/bin/../lib/gcc/powerpc64-ps3-elf/4.5.2/../../../../powerpc64-ps3-elf/lib\libc.a(lib_a-exit.o)
 .debug_info    0x0000000000001f3e      0x9fb c:/psdk3v2/ps3dev/ppu/bin/../lib/gcc/powerpc64-ps3-elf/4.5.2/../../../../powerpc64-ps3-elf/lib\libc.a(lib_a-impure.o)
 .debug_info    0x0000000000002939       0xee c:/psdk3v2/ps3dev/ppu/bin/../lib/gcc/powerpc64-ps3-elf/4.5.2/../../../../powerpc64-ps3-elf/lib\libc.a(lib_a-malloc.o)
 .debug_info    0x0000000000002a27      0xe20 c:/psdk3v2/ps3dev/ppu/bin/../lib/gcc/powerpc64-ps3-elf/4.5.2/../../../../powerpc64-ps3-elf/lib\libc.a(lib_a-mallocr.o)
 .debug_info    0x0000000000003847      0xa2c c:/psdk3v2/ps3dev/ppu/bin/../lib/gcc/powerpc64-ps3-elf/4.5.2/../../../../powerpc64-ps3-elf/lib\libc.a(lib_a-mlock.o)
 .debug_info    0x0000000000004273      0x120 c:/psdk3v2/ps3dev/ppu/bin/../lib/gcc/powerpc64-ps3-elf/4.5.2/../../../../powerpc64-ps3-elf/lib\libc.a(lib_a-strcpy.o)
 .debug_info    0x0000000000004393       0xed c:/psdk3v2/ps3dev/ppu/bin/../lib/gcc/powerpc64-ps3-elf/4.5.2/../../../../powerpc64-ps3-elf/lib\libc.a(lib_a-strlen.o)
 .debug_info    0x0000000000004480      0x105 c:/psdk3v2/ps3dev/ppu/bin/../lib/gcc/powerpc64-ps3-elf/4.5.2/../../../../powerpc64-ps3-elf/lib\libc.a(lib_a-strncmp.o)
 .debug_info    0x0000000000004585      0xaa9 c:/psdk3v2/ps3dev/ppu/bin/../lib/gcc/powerpc64-ps3-elf/4.5.2/../../../../powerpc64-ps3-elf/lib\libc.a(lib_a-__call_atexit.o)
 .debug_info    0x000000000000502e      0xcdd c:/psdk3v2/ps3dev/ppu/bin/../lib/gcc/powerpc64-ps3-elf/4.5.2/../../../../powerpc64-ps3-elf/lib\libc.a(lib_a-freer.o)
 .debug_info    0x0000000000005d0b      0xa2c c:/psdk3v2/ps3dev/ppu/bin/../lib/gcc/powerpc64-ps3-elf/4.5.2/../../../../powerpc64-ps3-elf/lib\libc.a(lib_a-getreent.o)
 .debug_info    0x0000000000006737      0x26e c:/psdk3v2/ps3dev/ppu/bin/../lib/gcc/powerpc64-ps3-elf/4.5.2/../../../../powerpc64-ps3-elf/lib\libc.a(lib_a-lock_recursive.o)
 .debug_info    0x00000000000069a5      0x129 c:/psdk3v2/ps3dev/ppu/bin/../lib/gcc/powerpc64-ps3-elf/4.5.2/../../../../powerpc64-ps3-elf/lib\libc.a(lib_a-memset.o)
 .debug_info    0x0000000000006ace      0xa9b c:/psdk3v2/ps3dev/ppu/bin/../lib/gcc/powerpc64-ps3-elf/4.5.2/../../../../powerpc64-ps3-elf/lib\libc.a(lib_a-__atexit.o)
 .debug_info    0x0000000000007569      0x1c7 c:/psdk3v2/ps3dev/ppu/bin/../lib/gcc/powerpc64-ps3-elf/4.5.2/../../../../powerpc64-ps3-elf/lib\libc.a(lib_a-lock_internal.o)
 .debug_info    0x0000000000007730       0x9c c:/psdk3v2/ps3dev/ppu/bin/../lib/gcc/powerpc64-ps3-elf/4.5.2/../../../../powerpc64-ps3-elf/lib\libc.a(lib_a-abort.o)
 .debug_info    0x00000000000077cc      0xbd3 c:/psdk3v2/ps3dev/ppu/bin/../lib/gcc/powerpc64-ps3-elf/4.5.2/../../../../powerpc64-ps3-elf/lib\libc.a(lib_a-signal.o)
 .debug_info    0x000000000000839f     0x1581 c:/psdk3v2/ps3dev/ppu/bin/../lib/gcc/powerpc64-ps3-elf/4.5.2/../../../../powerpc64-ps3-elf/lib\libsysbase.a(sbrk.o)
 .debug_info    0x0000000000009920     0x156d c:/psdk3v2/ps3dev/ppu/bin/../lib/gcc/powerpc64-ps3-elf/4.5.2/../../../../powerpc64-ps3-elf/lib\libsysbase.a(_exit.o)
 .debug_info    0x000000000000ae8d     0x16a5 c:/psdk3v2/ps3dev/ppu/bin/../lib/gcc/powerpc64-ps3-elf/4.5.2/../../../../powerpc64-ps3-elf/lib\libsysbase.a(lock.o)
 .debug_info    0x000000000000c532     0x1572 c:/psdk3v2/ps3dev/ppu/bin/../lib/gcc/powerpc64-ps3-elf/4.5.2/../../../../powerpc64-ps3-elf/lib\libsysbase.a(getpid.o)
 .debug_info    0x000000000000daa4      0x9ff c:/psdk3v2/ps3dev/ppu/bin/../lib/gcc/powerpc64-ps3-elf/4.5.2/../../../../powerpc64-ps3-elf/lib\libsysbase.a(kill.o)
 .debug_info    0x000000000000e4a3       0xa6 c:/psdk3v2/ps3dev/ppu/bin/../lib/gcc/powerpc64-ps3-elf/4.5.2/../../../../powerpc64-ps3-elf/lib\libc.a(lib_a-errno.o)
 .debug_info    0x000000000000e549      0xad1 c:/psdk3v2/ps3dev/ppu/bin/../lib/gcc/powerpc64-ps3-elf/4.5.2/../../../../powerpc64-ps3-elf/lib\libc.a(lib_a-sscanf.o)
 .debug_info    0x000000000000f01a      0xbeb c:/psdk3v2/ps3dev/ppu/bin/../lib/gcc/powerpc64-ps3-elf/4.5.2/../../../../powerpc64-ps3-elf/lib\libc.a(lib_a-stdio.o)
 .debug_info    0x000000000000fc05      0x138 c:/psdk3v2/ps3dev/ppu/bin/../lib/gcc/powerpc64-ps3-elf/4.5.2/../../../../powerpc64-ps3-elf/lib\libc.a(lib_a-strncpy.o)
 .debug_info    0x000000000000fd3d      0xed2 c:/psdk3v2/ps3dev/ppu/bin/../lib/gcc/powerpc64-ps3-elf/4.5.2/../../../../powerpc64-ps3-elf/lib\libc.a(lib_a-svfscanf.o)
 .debug_info    0x0000000000010c0f       0x9b c:/psdk3v2/ps3dev/ppu/bin/../lib/gcc/powerpc64-ps3-elf/4.5.2/../../../../powerpc64-ps3-elf/lib\libc.a(lib_a-ctype_.o)
 .debug_info    0x0000000000010caa      0xde2 c:/psdk3v2/ps3dev/ppu/bin/../lib/gcc/powerpc64-ps3-elf/4.5.2/../../../../powerpc64-ps3-elf/lib\libc.a(lib_a-findfp.o)
 .debug_info    0x0000000000011a8c      0xbd9 c:/psdk3v2/ps3dev/ppu/bin/../lib/gcc/powerpc64-ps3-elf/4.5.2/../../../../powerpc64-ps3-elf/lib\libc.a(lib_a-fwalk.o)
 .debug_info    0x0000000000012665       0xe2 c:/psdk3v2/ps3dev/ppu/bin/../lib/gcc/powerpc64-ps3-elf/4.5.2/../../../../powerpc64-ps3-elf/lib\libc.a(lib_a-iswspace.o)
 .debug_info    0x0000000000012747      0xd65 c:/psdk3v2/ps3dev/ppu/bin/../lib/gcc/powerpc64-ps3-elf/4.5.2/../../../../powerpc64-ps3-elf/lib\libc.a(lib_a-locale.o)
 .debug_info    0x00000000000134ac      0xb15 c:/psdk3v2/ps3dev/ppu/bin/../lib/gcc/powerpc64-ps3-elf/4.5.2/../../../../powerpc64-ps3-elf/lib\libc.a(lib_a-mbrtowc.o)
 .debug_info    0x0000000000013fc1      0xb2c c:/psdk3v2/ps3dev/ppu/bin/../lib/gcc/powerpc64-ps3-elf/4.5.2/../../../../powerpc64-ps3-elf/lib\libc.a(lib_a-mbtowc_r.o)
 .debug_info    0x0000000000014aed      0x150 c:/psdk3v2/ps3dev/ppu/bin/../lib/gcc/powerpc64-ps3-elf/4.5.2/../../../../powerpc64-ps3-elf/lib\libc.a(lib_a-s_fpclassify.o)
 .debug_info    0x0000000000014c3d      0x10f c:/psdk3v2/ps3dev/ppu/bin/../lib/gcc/powerpc64-ps3-elf/4.5.2/../../../../powerpc64-ps3-elf/lib\libc.a(lib_a-sccl.o)
 .debug_info    0x0000000000014d4c       0xdc c:/psdk3v2/ps3dev/ppu/bin/../lib/gcc/powerpc64-ps3-elf/4.5.2/../../../../powerpc64-ps3-elf/lib\libc.a(lib_a-sf_nan.o)
 .debug_info    0x0000000000014e28      0xad1 c:/psdk3v2/ps3dev/ppu/bin/../lib/gcc/powerpc64-ps3-elf/4.5.2/../../../../powerpc64-ps3-elf/lib\libc.a(lib_a-sprintf.o)
 .debug_info    0x00000000000158f9       0xed c:/psdk3v2/ps3dev/ppu/bin/../lib/gcc/powerpc64-ps3-elf/4.5.2/../../../../powerpc64-ps3-elf/lib\libc.a(lib_a-strcmp.o)
 .debug_info    0x00000000000159e6     0x107f c:/psdk3v2/ps3dev/ppu/bin/../lib/gcc/powerpc64-ps3-elf/4.5.2/../../../../powerpc64-ps3-elf/lib\libc.a(lib_a-strtod.o)
 .debug_info    0x0000000000016a65      0xaf7 c:/psdk3v2/ps3dev/ppu/bin/../lib/gcc/powerpc64-ps3-elf/4.5.2/../../../../powerpc64-ps3-elf/lib\libc.a(lib_a-strtol.o)
 .debug_info    0x000000000001755c      0xaa6 c:/psdk3v2/ps3dev/ppu/bin/../lib/gcc/powerpc64-ps3-elf/4.5.2/../../../../powerpc64-ps3-elf/lib\libc.a(lib_a-strtoll_r.o)
 .debug_info    0x0000000000018002      0xaf7 c:/psdk3v2/ps3dev/ppu/bin/../lib/gcc/powerpc64-ps3-elf/4.5.2/../../../../powerpc64-ps3-elf/lib\libc.a(lib_a-strtoul.o)
 .debug_info    0x0000000000018af9      0xaa6 c:/psdk3v2/ps3dev/ppu/bin/../lib/gcc/powerpc64-ps3-elf/4.5.2/../../../../powerpc64-ps3-elf/lib\libc.a(lib_a-strtoull_r.o)
 .debug_info    0x000000000001959f      0xf0f c:/psdk3v2/ps3dev/ppu/bin/../lib/gcc/powerpc64-ps3-elf/4.5.2/../../../../powerpc64-ps3-elf/lib\libc.a(lib_a-svfiscanf.o)
 .debug_info    0x000000000001a4ae     0x10b9 c:/psdk3v2/ps3dev/ppu/bin/../lib/gcc/powerpc64-ps3-elf/4.5.2/../../../../powerpc64-ps3-elf/lib\libc.a(lib_a-svfprintf.o)
 .debug_info    0x000000000001b567      0xabe c:/psdk3v2/ps3dev/ppu/bin/../lib/gcc/powerpc64-ps3-elf/4.5.2/../../../../powerpc64-ps3-elf/lib\libc.a(lib_a-ungetc.o)
 .debug_info    0x000000000001c025      0xe8c c:/psdk3v2/ps3dev/ppu/bin/../lib/gcc/powerpc64-ps3-elf/4.5.2/../../../../powerpc64-ps3-elf/lib\libc.a(lib_a-dtoa.o)
 .debug_info    0x000000000001ceb1      0xa49 c:/psdk3v2/ps3dev/ppu/bin/../lib/gcc/powerpc64-ps3-elf/4.5.2/../../../../powerpc64-ps3-elf/lib\libc.a(lib_a-fclose.o)
 .debug_info    0x000000000001d8fa      0xac1 c:/psdk3v2/ps3dev/ppu/bin/../lib/gcc/powerpc64-ps3-elf/4.5.2/../../../../powerpc64-ps3-elf/lib\libc.a(lib_a-fflush.o)
 .debug_info    0x000000000001e3bb      0xf56 c:/psdk3v2/ps3dev/ppu/bin/../lib/gcc/powerpc64-ps3-elf/4.5.2/../../../../powerpc64-ps3-elf/lib\libc.a(lib_a-gdtoa-gethex.o)
 .debug_info    0x000000000001f311      0x348 c:/psdk3v2/ps3dev/ppu/bin/../lib/gcc/powerpc64-ps3-elf/4.5.2/../../../../powerpc64-ps3-elf/lib\libc.a(lib_a-gdtoa-hexnan.o)
 .debug_info    0x000000000001f659      0x139 c:/psdk3v2/ps3dev/ppu/bin/../lib/gcc/powerpc64-ps3-elf/4.5.2/../../../../powerpc64-ps3-elf/lib\libc.a(lib_a-memchr.o)
 .debug_info    0x000000000001f792      0x141 c:/psdk3v2/ps3dev/ppu/bin/../lib/gcc/powerpc64-ps3-elf/4.5.2/../../../../powerpc64-ps3-elf/lib\libc.a(lib_a-memcpy.o)
 .debug_info    0x000000000001f8d3     0x161d c:/psdk3v2/ps3dev/ppu/bin/../lib/gcc/powerpc64-ps3-elf/4.5.2/../../../../powerpc64-ps3-elf/lib\libc.a(lib_a-mprec.o)
 .debug_info    0x0000000000020ef0      0xcb5 c:/psdk3v2/ps3dev/ppu/bin/../lib/gcc/powerpc64-ps3-elf/4.5.2/../../../../powerpc64-ps3-elf/lib\libc.a(lib_a-reallocr.o)
 .debug_info    0x0000000000021ba5      0xe4a c:/psdk3v2/ps3dev/ppu/bin/../lib/gcc/powerpc64-ps3-elf/4.5.2/../../../../powerpc64-ps3-elf/lib\libc.a(lib_a-svfiprintf.o)
 .debug_info    0x00000000000229ef      0xaeb c:/psdk3v2/ps3dev/ppu/bin/../lib/gcc/powerpc64-ps3-elf/4.5.2/../../../../powerpc64-ps3-elf/lib\libc.a(lib_a-callocr.o)
 .debug_info    0x00000000000234da      0x141 c:/psdk3v2/ps3dev/ppu/bin/../lib/gcc/powerpc64-ps3-elf/4.5.2/../../../../powerpc64-ps3-elf/lib\libc.a(lib_a-memmove.o)
 .debug_info    0x000000000002361b     0x1580 c:/psdk3v2/ps3dev/ppu/bin/../lib/gcc/powerpc64-ps3-elf/4.5.2/../../../../powerpc64-ps3-elf/lib\libsysbase.a(close.o)
 .debug_info    0x0000000000024b9b     0x159c c:/psdk3v2/ps3dev/ppu/bin/../lib/gcc/powerpc64-ps3-elf/4.5.2/../../../../powerpc64-ps3-elf/lib\libsysbase.a(lseek.o)
 .debug_info    0x0000000000026137     0x159c c:/psdk3v2/ps3dev/ppu/bin/../lib/gcc/powerpc64-ps3-elf/4.5.2/../../../../powerpc64-ps3-elf/lib\libsysbase.a(read.o)
 .debug_info    0x00000000000276d3     0x159c c:/psdk3v2/ps3dev/ppu/bin/../lib/gcc/powerpc64-ps3-elf/4.5.2/../../../../powerpc64-ps3-elf/lib\libsysbase.a(write.o)

.debug_abbrev   0x0000000000000000     0x6350
 *(.debug_abbrev)
 .debug_abbrev  0x0000000000000000      0x1a0 c:/psdk3v2/ps3dev/ppu/bin/../lib/gcc/powerpc64-ps3-elf/4.5.2/../../../../powerpc64-ps3-elf/lib\libsysbase.a(syscalls.o)
 .debug_abbrev  0x00000000000001a0      0x18c c:/psdk3v2/ps3dev/ppu/bin/../lib/gcc/powerpc64-ps3-elf/4.5.2/../../../../powerpc64-ps3-elf/lib\libc.a(lib_a-exit.o)
 .debug_abbrev  0x000000000000032c      0x173 c:/psdk3v2/ps3dev/ppu/bin/../lib/gcc/powerpc64-ps3-elf/4.5.2/../../../../powerpc64-ps3-elf/lib\libc.a(lib_a-impure.o)
 .debug_abbrev  0x000000000000049f       0x7d c:/psdk3v2/ps3dev/ppu/bin/../lib/gcc/powerpc64-ps3-elf/4.5.2/../../../../powerpc64-ps3-elf/lib\libc.a(lib_a-malloc.o)
 .debug_abbrev  0x000000000000051c      0x242 c:/psdk3v2/ps3dev/ppu/bin/../lib/gcc/powerpc64-ps3-elf/4.5.2/../../../../powerpc64-ps3-elf/lib\libc.a(lib_a-mallocr.o)
 .debug_abbrev  0x000000000000075e      0x188 c:/psdk3v2/ps3dev/ppu/bin/../lib/gcc/powerpc64-ps3-elf/4.5.2/../../../../powerpc64-ps3-elf/lib\libc.a(lib_a-mlock.o)
 .debug_abbrev  0x00000000000008e6       0x82 c:/psdk3v2/ps3dev/ppu/bin/../lib/gcc/powerpc64-ps3-elf/4.5.2/../../../../powerpc64-ps3-elf/lib\libc.a(lib_a-strcpy.o)
 .debug_abbrev  0x0000000000000968       0x80 c:/psdk3v2/ps3dev/ppu/bin/../lib/gcc/powerpc64-ps3-elf/4.5.2/../../../../powerpc64-ps3-elf/lib\libc.a(lib_a-strlen.o)
 .debug_abbrev  0x00000000000009e8       0x80 c:/psdk3v2/ps3dev/ppu/bin/../lib/gcc/powerpc64-ps3-elf/4.5.2/../../../../powerpc64-ps3-elf/lib\libc.a(lib_a-strncmp.o)
 .debug_abbrev  0x0000000000000a68      0x1eb c:/psdk3v2/ps3dev/ppu/bin/../lib/gcc/powerpc64-ps3-elf/4.5.2/../../../../powerpc64-ps3-elf/lib\libc.a(lib_a-__call_atexit.o)
 .debug_abbrev  0x0000000000000c53      0x1f9 c:/psdk3v2/ps3dev/ppu/bin/../lib/gcc/powerpc64-ps3-elf/4.5.2/../../../../powerpc64-ps3-elf/lib\libc.a(lib_a-freer.o)
 .debug_abbrev  0x0000000000000e4c      0x1a9 c:/psdk3v2/ps3dev/ppu/bin/../lib/gcc/powerpc64-ps3-elf/4.5.2/../../../../powerpc64-ps3-elf/lib\libc.a(lib_a-getreent.o)
 .debug_abbrev  0x0000000000000ff5       0xb0 c:/psdk3v2/ps3dev/ppu/bin/../lib/gcc/powerpc64-ps3-elf/4.5.2/../../../../powerpc64-ps3-elf/lib\libc.a(lib_a-lock_recursive.o)
 .debug_abbrev  0x00000000000010a5       0x8f c:/psdk3v2/ps3dev/ppu/bin/../lib/gcc/powerpc64-ps3-elf/4.5.2/../../../../powerpc64-ps3-elf/lib\libc.a(lib_a-memset.o)
 .debug_abbrev  0x0000000000001134      0x1f5 c:/psdk3v2/ps3dev/ppu/bin/../lib/gcc/powerpc64-ps3-elf/4.5.2/../../../../powerpc64-ps3-elf/lib\libc.a(lib_a-__atexit.o)
 .debug_abbrev  0x0000000000001329       0xc1 c:/psdk3v2/ps3dev/ppu/bin/../lib/gcc/powerpc64-ps3-elf/4.5.2/../../../../powerpc64-ps3-elf/lib\libc.a(lib_a-lock_internal.o)
 .debug_abbrev  0x00000000000013ea       0x41 c:/psdk3v2/ps3dev/ppu/bin/../lib/gcc/powerpc64-ps3-elf/4.5.2/../../../../powerpc64-ps3-elf/lib\libc.a(lib_a-abort.o)
 .debug_abbrev  0x000000000000142b      0x1d6 c:/psdk3v2/ps3dev/ppu/bin/../lib/gcc/powerpc64-ps3-elf/4.5.2/../../../../powerpc64-ps3-elf/lib\libc.a(lib_a-signal.o)
 .debug_abbrev  0x0000000000001601      0x1d9 c:/psdk3v2/ps3dev/ppu/bin/../lib/gcc/powerpc64-ps3-elf/4.5.2/../../../../powerpc64-ps3-elf/lib\libsysbase.a(sbrk.o)
 .debug_abbrev  0x00000000000017da      0x1c8 c:/psdk3v2/ps3dev/ppu/bin/../lib/gcc/powerpc64-ps3-elf/4.5.2/../../../../powerpc64-ps3-elf/lib\libsysbase.a(_exit.o)
 .debug_abbrev  0x00000000000019a2      0x1d9 c:/psdk3v2/ps3dev/ppu/bin/../lib/gcc/powerpc64-ps3-elf/4.5.2/../../../../powerpc64-ps3-elf/lib\libsysbase.a(lock.o)
 .debug_abbrev  0x0000000000001b7b      0x1ca c:/psdk3v2/ps3dev/ppu/bin/../lib/gcc/powerpc64-ps3-elf/4.5.2/../../../../powerpc64-ps3-elf/lib\libsysbase.a(getpid.o)
 .debug_abbrev  0x0000000000001d45      0x18a c:/psdk3v2/ps3dev/ppu/bin/../lib/gcc/powerpc64-ps3-elf/4.5.2/../../../../powerpc64-ps3-elf/lib\libsysbase.a(kill.o)
 .debug_abbrev  0x0000000000001ecf       0x4c c:/psdk3v2/ps3dev/ppu/bin/../lib/gcc/powerpc64-ps3-elf/4.5.2/../../../../powerpc64-ps3-elf/lib\libc.a(lib_a-errno.o)
 .debug_abbrev  0x0000000000001f1b      0x1c0 c:/psdk3v2/ps3dev/ppu/bin/../lib/gcc/powerpc64-ps3-elf/4.5.2/../../../../powerpc64-ps3-elf/lib\libc.a(lib_a-sscanf.o)
 .debug_abbrev  0x00000000000020db      0x205 c:/psdk3v2/ps3dev/ppu/bin/../lib/gcc/powerpc64-ps3-elf/4.5.2/../../../../powerpc64-ps3-elf/lib\libc.a(lib_a-stdio.o)
 .debug_abbrev  0x00000000000022e0       0x9e c:/psdk3v2/ps3dev/ppu/bin/../lib/gcc/powerpc64-ps3-elf/4.5.2/../../../../powerpc64-ps3-elf/lib\libc.a(lib_a-strncpy.o)
 .debug_abbrev  0x000000000000237e      0x254 c:/psdk3v2/ps3dev/ppu/bin/../lib/gcc/powerpc64-ps3-elf/4.5.2/../../../../powerpc64-ps3-elf/lib\libc.a(lib_a-svfscanf.o)
 .debug_abbrev  0x00000000000025d2       0x63 c:/psdk3v2/ps3dev/ppu/bin/../lib/gcc/powerpc64-ps3-elf/4.5.2/../../../../powerpc64-ps3-elf/lib\libc.a(lib_a-ctype_.o)
 .debug_abbrev  0x0000000000002635      0x2b9 c:/psdk3v2/ps3dev/ppu/bin/../lib/gcc/powerpc64-ps3-elf/4.5.2/../../../../powerpc64-ps3-elf/lib\libc.a(lib_a-findfp.o)
 .debug_abbrev  0x00000000000028ee      0x214 c:/psdk3v2/ps3dev/ppu/bin/../lib/gcc/powerpc64-ps3-elf/4.5.2/../../../../powerpc64-ps3-elf/lib\libc.a(lib_a-fwalk.o)
 .debug_abbrev  0x0000000000002b02       0x82 c:/psdk3v2/ps3dev/ppu/bin/../lib/gcc/powerpc64-ps3-elf/4.5.2/../../../../powerpc64-ps3-elf/lib\libc.a(lib_a-iswspace.o)
 .debug_abbrev  0x0000000000002b84      0x25a c:/psdk3v2/ps3dev/ppu/bin/../lib/gcc/powerpc64-ps3-elf/4.5.2/../../../../powerpc64-ps3-elf/lib\libc.a(lib_a-locale.o)
 .debug_abbrev  0x0000000000002dde      0x19d c:/psdk3v2/ps3dev/ppu/bin/../lib/gcc/powerpc64-ps3-elf/4.5.2/../../../../powerpc64-ps3-elf/lib\libc.a(lib_a-mbrtowc.o)
 .debug_abbrev  0x0000000000002f7b      0x203 c:/psdk3v2/ps3dev/ppu/bin/../lib/gcc/powerpc64-ps3-elf/4.5.2/../../../../powerpc64-ps3-elf/lib\libc.a(lib_a-mbtowc_r.o)
 .debug_abbrev  0x000000000000317e       0xc7 c:/psdk3v2/ps3dev/ppu/bin/../lib/gcc/powerpc64-ps3-elf/4.5.2/../../../../powerpc64-ps3-elf/lib\libc.a(lib_a-s_fpclassify.o)
 .debug_abbrev  0x0000000000003245       0x86 c:/psdk3v2/ps3dev/ppu/bin/../lib/gcc/powerpc64-ps3-elf/4.5.2/../../../../powerpc64-ps3-elf/lib\libc.a(lib_a-sccl.o)
 .debug_abbrev  0x00000000000032cb       0x71 c:/psdk3v2/ps3dev/ppu/bin/../lib/gcc/powerpc64-ps3-elf/4.5.2/../../../../powerpc64-ps3-elf/lib\libc.a(lib_a-sf_nan.o)
 .debug_abbrev  0x000000000000333c      0x1c0 c:/psdk3v2/ps3dev/ppu/bin/../lib/gcc/powerpc64-ps3-elf/4.5.2/../../../../powerpc64-ps3-elf/lib\libc.a(lib_a-sprintf.o)
 .debug_abbrev  0x00000000000034fc       0x73 c:/psdk3v2/ps3dev/ppu/bin/../lib/gcc/powerpc64-ps3-elf/4.5.2/../../../../powerpc64-ps3-elf/lib\libc.a(lib_a-strcmp.o)
 .debug_abbrev  0x000000000000356f      0x2fe c:/psdk3v2/ps3dev/ppu/bin/../lib/gcc/powerpc64-ps3-elf/4.5.2/../../../../powerpc64-ps3-elf/lib\libc.a(lib_a-strtod.o)
 .debug_abbrev  0x000000000000386d      0x1e3 c:/psdk3v2/ps3dev/ppu/bin/../lib/gcc/powerpc64-ps3-elf/4.5.2/../../../../powerpc64-ps3-elf/lib\libc.a(lib_a-strtol.o)
 .debug_abbrev  0x0000000000003a50      0x1bb c:/psdk3v2/ps3dev/ppu/bin/../lib/gcc/powerpc64-ps3-elf/4.5.2/../../../../powerpc64-ps3-elf/lib\libc.a(lib_a-strtoll_r.o)
 .debug_abbrev  0x0000000000003c0b      0x1e3 c:/psdk3v2/ps3dev/ppu/bin/../lib/gcc/powerpc64-ps3-elf/4.5.2/../../../../powerpc64-ps3-elf/lib\libc.a(lib_a-strtoul.o)
 .debug_abbrev  0x0000000000003dee      0x1bb c:/psdk3v2/ps3dev/ppu/bin/../lib/gcc/powerpc64-ps3-elf/4.5.2/../../../../powerpc64-ps3-elf/lib\libc.a(lib_a-strtoull_r.o)
 .debug_abbrev  0x0000000000003fa9      0x24b c:/psdk3v2/ps3dev/ppu/bin/../lib/gcc/powerpc64-ps3-elf/4.5.2/../../../../powerpc64-ps3-elf/lib\libc.a(lib_a-svfiscanf.o)
 .debug_abbrev  0x00000000000041f4      0x304 c:/psdk3v2/ps3dev/ppu/bin/../lib/gcc/powerpc64-ps3-elf/4.5.2/../../../../powerpc64-ps3-elf/lib\libc.a(lib_a-svfprintf.o)
 .debug_abbrev  0x00000000000044f8      0x1cb c:/psdk3v2/ps3dev/ppu/bin/../lib/gcc/powerpc64-ps3-elf/4.5.2/../../../../powerpc64-ps3-elf/lib\libc.a(lib_a-ungetc.o)
 .debug_abbrev  0x00000000000046c3      0x21a c:/psdk3v2/ps3dev/ppu/bin/../lib/gcc/powerpc64-ps3-elf/4.5.2/../../../../powerpc64-ps3-elf/lib\libc.a(lib_a-dtoa.o)
 .debug_abbrev  0x00000000000048dd      0x1b2 c:/psdk3v2/ps3dev/ppu/bin/../lib/gcc/powerpc64-ps3-elf/4.5.2/../../../../powerpc64-ps3-elf/lib\libc.a(lib_a-fclose.o)
 .debug_abbrev  0x0000000000004a8f      0x1cc c:/psdk3v2/ps3dev/ppu/bin/../lib/gcc/powerpc64-ps3-elf/4.5.2/../../../../powerpc64-ps3-elf/lib\libc.a(lib_a-fflush.o)
 .debug_abbrev  0x0000000000004c5b      0x32b c:/psdk3v2/ps3dev/ppu/bin/../lib/gcc/powerpc64-ps3-elf/4.5.2/../../../../powerpc64-ps3-elf/lib\libc.a(lib_a-gdtoa-gethex.o)
 .debug_abbrev  0x0000000000004f86      0x15e c:/psdk3v2/ps3dev/ppu/bin/../lib/gcc/powerpc64-ps3-elf/4.5.2/../../../../powerpc64-ps3-elf/lib\libc.a(lib_a-gdtoa-hexnan.o)
 .debug_abbrev  0x00000000000050e4       0xb9 c:/psdk3v2/ps3dev/ppu/bin/../lib/gcc/powerpc64-ps3-elf/4.5.2/../../../../powerpc64-ps3-elf/lib\libc.a(lib_a-memchr.o)
 .debug_abbrev  0x000000000000519d       0xaa c:/psdk3v2/ps3dev/ppu/bin/../lib/gcc/powerpc64-ps3-elf/4.5.2/../../../../powerpc64-ps3-elf/lib\libc.a(lib_a-memcpy.o)
 .debug_abbrev  0x0000000000005247      0x315 c:/psdk3v2/ps3dev/ppu/bin/../lib/gcc/powerpc64-ps3-elf/4.5.2/../../../../powerpc64-ps3-elf/lib\libc.a(lib_a-mprec.o)
 .debug_abbrev  0x000000000000555c      0x1ea c:/psdk3v2/ps3dev/ppu/bin/../lib/gcc/powerpc64-ps3-elf/4.5.2/../../../../powerpc64-ps3-elf/lib\libc.a(lib_a-reallocr.o)
 .debug_abbrev  0x0000000000005746      0x26f c:/psdk3v2/ps3dev/ppu/bin/../lib/gcc/powerpc64-ps3-elf/4.5.2/../../../../powerpc64-ps3-elf/lib\libc.a(lib_a-svfiprintf.o)
 .debug_abbrev  0x00000000000059b5      0x1c9 c:/psdk3v2/ps3dev/ppu/bin/../lib/gcc/powerpc64-ps3-elf/4.5.2/../../../../powerpc64-ps3-elf/lib\libc.a(lib_a-callocr.o)
 .debug_abbrev  0x0000000000005b7e       0xaa c:/psdk3v2/ps3dev/ppu/bin/../lib/gcc/powerpc64-ps3-elf/4.5.2/../../../../powerpc64-ps3-elf/lib\libc.a(lib_a-memmove.o)
 .debug_abbrev  0x0000000000005c28      0x1ca c:/psdk3v2/ps3dev/ppu/bin/../lib/gcc/powerpc64-ps3-elf/4.5.2/../../../../powerpc64-ps3-elf/lib\libsysbase.a(close.o)
 .debug_abbrev  0x0000000000005df2      0x1ca c:/psdk3v2/ps3dev/ppu/bin/../lib/gcc/powerpc64-ps3-elf/4.5.2/../../../../powerpc64-ps3-elf/lib\libsysbase.a(lseek.o)
 .debug_abbrev  0x0000000000005fbc      0x1ca c:/psdk3v2/ps3dev/ppu/bin/../lib/gcc/powerpc64-ps3-elf/4.5.2/../../../../powerpc64-ps3-elf/lib\libsysbase.a(read.o)
 .debug_abbrev  0x0000000000006186      0x1ca c:/psdk3v2/ps3dev/ppu/bin/../lib/gcc/powerpc64-ps3-elf/4.5.2/../../../../powerpc64-ps3-elf/lib\libsysbase.a(write.o)

.debug_line     0x0000000000000000     0xd572
 *(.debug_line)
 .debug_line    0x0000000000000000      0x2e0 c:/psdk3v2/ps3dev/ppu/bin/../lib/gcc/powerpc64-ps3-elf/4.5.2/../../../../powerpc64-ps3-elf/lib\libsysbase.a(syscalls.o)
 .debug_line    0x00000000000002e0      0x2d4 c:/psdk3v2/ps3dev/ppu/bin/../lib/gcc/powerpc64-ps3-elf/4.5.2/../../../../powerpc64-ps3-elf/lib\libc.a(lib_a-exit.o)
 .debug_line    0x00000000000005b4      0x2b0 c:/psdk3v2/ps3dev/ppu/bin/../lib/gcc/powerpc64-ps3-elf/4.5.2/../../../../powerpc64-ps3-elf/lib\libc.a(lib_a-impure.o)
 .debug_line    0x0000000000000864      0x148 c:/psdk3v2/ps3dev/ppu/bin/../lib/gcc/powerpc64-ps3-elf/4.5.2/../../../../powerpc64-ps3-elf/lib\libc.a(lib_a-malloc.o)
 .debug_line    0x00000000000009ac      0x51a c:/psdk3v2/ps3dev/ppu/bin/../lib/gcc/powerpc64-ps3-elf/4.5.2/../../../../powerpc64-ps3-elf/lib\libc.a(lib_a-mallocr.o)
 .debug_line    0x0000000000000ec6      0x2de c:/psdk3v2/ps3dev/ppu/bin/../lib/gcc/powerpc64-ps3-elf/4.5.2/../../../../powerpc64-ps3-elf/lib\libc.a(lib_a-mlock.o)
 .debug_line    0x00000000000011a4       0xe9 c:/psdk3v2/ps3dev/ppu/bin/../lib/gcc/powerpc64-ps3-elf/4.5.2/../../../../powerpc64-ps3-elf/lib\libc.a(lib_a-strcpy.o)
 .debug_line    0x000000000000128d      0x144 c:/psdk3v2/ps3dev/ppu/bin/../lib/gcc/powerpc64-ps3-elf/4.5.2/../../../../powerpc64-ps3-elf/lib\libc.a(lib_a-strlen.o)
 .debug_line    0x00000000000013d1      0x1aa c:/psdk3v2/ps3dev/ppu/bin/../lib/gcc/powerpc64-ps3-elf/4.5.2/../../../../powerpc64-ps3-elf/lib\libc.a(lib_a-strncmp.o)
 .debug_line    0x000000000000157b      0x33b c:/psdk3v2/ps3dev/ppu/bin/../lib/gcc/powerpc64-ps3-elf/4.5.2/../../../../powerpc64-ps3-elf/lib\libc.a(lib_a-__call_atexit.o)
 .debug_line    0x00000000000018b6      0x3c1 c:/psdk3v2/ps3dev/ppu/bin/../lib/gcc/powerpc64-ps3-elf/4.5.2/../../../../powerpc64-ps3-elf/lib\libc.a(lib_a-freer.o)
 .debug_line    0x0000000000001c77      0x22e c:/psdk3v2/ps3dev/ppu/bin/../lib/gcc/powerpc64-ps3-elf/4.5.2/../../../../powerpc64-ps3-elf/lib\libc.a(lib_a-getreent.o)
 .debug_line    0x0000000000001ea5      0x17f c:/psdk3v2/ps3dev/ppu/bin/../lib/gcc/powerpc64-ps3-elf/4.5.2/../../../../powerpc64-ps3-elf/lib\libc.a(lib_a-lock_recursive.o)
 .debug_line    0x0000000000002024      0x197 c:/psdk3v2/ps3dev/ppu/bin/../lib/gcc/powerpc64-ps3-elf/4.5.2/../../../../powerpc64-ps3-elf/lib\libc.a(lib_a-memset.o)
 .debug_line    0x00000000000021bb      0x308 c:/psdk3v2/ps3dev/ppu/bin/../lib/gcc/powerpc64-ps3-elf/4.5.2/../../../../powerpc64-ps3-elf/lib\libc.a(lib_a-__atexit.o)
 .debug_line    0x00000000000024c3      0x144 c:/psdk3v2/ps3dev/ppu/bin/../lib/gcc/powerpc64-ps3-elf/4.5.2/../../../../powerpc64-ps3-elf/lib\libc.a(lib_a-lock_internal.o)
 .debug_line    0x0000000000002607       0xcf c:/psdk3v2/ps3dev/ppu/bin/../lib/gcc/powerpc64-ps3-elf/4.5.2/../../../../powerpc64-ps3-elf/lib\libc.a(lib_a-abort.o)
 .debug_line    0x00000000000026d6      0x401 c:/psdk3v2/ps3dev/ppu/bin/../lib/gcc/powerpc64-ps3-elf/4.5.2/../../../../powerpc64-ps3-elf/lib\libc.a(lib_a-signal.o)
 .debug_line    0x0000000000002ad7      0x328 c:/psdk3v2/ps3dev/ppu/bin/../lib/gcc/powerpc64-ps3-elf/4.5.2/../../../../powerpc64-ps3-elf/lib\libsysbase.a(sbrk.o)
 .debug_line    0x0000000000002dff      0x32e c:/psdk3v2/ps3dev/ppu/bin/../lib/gcc/powerpc64-ps3-elf/4.5.2/../../../../powerpc64-ps3-elf/lib\libsysbase.a(_exit.o)
 .debug_line    0x000000000000312d      0x39b c:/psdk3v2/ps3dev/ppu/bin/../lib/gcc/powerpc64-ps3-elf/4.5.2/../../../../powerpc64-ps3-elf/lib\libsysbase.a(lock.o)
 .debug_line    0x00000000000034c8      0x32a c:/psdk3v2/ps3dev/ppu/bin/../lib/gcc/powerpc64-ps3-elf/4.5.2/../../../../powerpc64-ps3-elf/lib\libsysbase.a(getpid.o)
 .debug_line    0x00000000000037f2      0x2c2 c:/psdk3v2/ps3dev/ppu/bin/../lib/gcc/powerpc64-ps3-elf/4.5.2/../../../../powerpc64-ps3-elf/lib\libsysbase.a(kill.o)
 .debug_line    0x0000000000003ab4       0xcd c:/psdk3v2/ps3dev/ppu/bin/../lib/gcc/powerpc64-ps3-elf/4.5.2/../../../../powerpc64-ps3-elf/lib\libc.a(lib_a-errno.o)
 .debug_line    0x0000000000003b81      0x323 c:/psdk3v2/ps3dev/ppu/bin/../lib/gcc/powerpc64-ps3-elf/4.5.2/../../../../powerpc64-ps3-elf/lib\libc.a(lib_a-sscanf.o)
 .debug_line    0x0000000000003ea4      0x362 c:/psdk3v2/ps3dev/ppu/bin/../lib/gcc/powerpc64-ps3-elf/4.5.2/../../../../powerpc64-ps3-elf/lib\libc.a(lib_a-stdio.o)
 .debug_line    0x0000000000004206      0x180 c:/psdk3v2/ps3dev/ppu/bin/../lib/gcc/powerpc64-ps3-elf/4.5.2/../../../../powerpc64-ps3-elf/lib\libc.a(lib_a-strncpy.o)
 .debug_line    0x0000000000004386      0x739 c:/psdk3v2/ps3dev/ppu/bin/../lib/gcc/powerpc64-ps3-elf/4.5.2/../../../../powerpc64-ps3-elf/lib\libc.a(lib_a-svfscanf.o)
 .debug_line    0x0000000000004abf       0x88 c:/psdk3v2/ps3dev/ppu/bin/../lib/gcc/powerpc64-ps3-elf/4.5.2/../../../../powerpc64-ps3-elf/lib\libc.a(lib_a-ctype_.o)
 .debug_line    0x0000000000004b47      0x4e1 c:/psdk3v2/ps3dev/ppu/bin/../lib/gcc/powerpc64-ps3-elf/4.5.2/../../../../powerpc64-ps3-elf/lib\libc.a(lib_a-findfp.o)
 .debug_line    0x0000000000005028      0x30e c:/psdk3v2/ps3dev/ppu/bin/../lib/gcc/powerpc64-ps3-elf/4.5.2/../../../../powerpc64-ps3-elf/lib\libc.a(lib_a-fwalk.o)
 .debug_line    0x0000000000005336      0x14b c:/psdk3v2/ps3dev/ppu/bin/../lib/gcc/powerpc64-ps3-elf/4.5.2/../../../../powerpc64-ps3-elf/lib\libc.a(lib_a-iswspace.o)
 .debug_line    0x0000000000005481      0x399 c:/psdk3v2/ps3dev/ppu/bin/../lib/gcc/powerpc64-ps3-elf/4.5.2/../../../../powerpc64-ps3-elf/lib\libc.a(lib_a-locale.o)
 .debug_line    0x000000000000581a      0x32c c:/psdk3v2/ps3dev/ppu/bin/../lib/gcc/powerpc64-ps3-elf/4.5.2/../../../../powerpc64-ps3-elf/lib\libc.a(lib_a-mbrtowc.o)
 .debug_line    0x0000000000005b46      0x318 c:/psdk3v2/ps3dev/ppu/bin/../lib/gcc/powerpc64-ps3-elf/4.5.2/../../../../powerpc64-ps3-elf/lib\libc.a(lib_a-mbtowc_r.o)
 .debug_line    0x0000000000005e5e      0x1a1 c:/psdk3v2/ps3dev/ppu/bin/../lib/gcc/powerpc64-ps3-elf/4.5.2/../../../../powerpc64-ps3-elf/lib\libc.a(lib_a-s_fpclassify.o)
 .debug_line    0x0000000000005fff      0x12a c:/psdk3v2/ps3dev/ppu/bin/../lib/gcc/powerpc64-ps3-elf/4.5.2/../../../../powerpc64-ps3-elf/lib\libc.a(lib_a-sccl.o)
 .debug_line    0x0000000000006129       0xc8 c:/psdk3v2/ps3dev/ppu/bin/../lib/gcc/powerpc64-ps3-elf/4.5.2/../../../../powerpc64-ps3-elf/lib\libc.a(lib_a-sf_nan.o)
 .debug_line    0x00000000000061f1      0x321 c:/psdk3v2/ps3dev/ppu/bin/../lib/gcc/powerpc64-ps3-elf/4.5.2/../../../../powerpc64-ps3-elf/lib\libc.a(lib_a-sprintf.o)
 .debug_line    0x0000000000006512       0xf6 c:/psdk3v2/ps3dev/ppu/bin/../lib/gcc/powerpc64-ps3-elf/4.5.2/../../../../powerpc64-ps3-elf/lib\libc.a(lib_a-strcmp.o)
 .debug_line    0x0000000000006608      0x838 c:/psdk3v2/ps3dev/ppu/bin/../lib/gcc/powerpc64-ps3-elf/4.5.2/../../../../powerpc64-ps3-elf/lib\libc.a(lib_a-strtod.o)
 .debug_line    0x0000000000006e40      0x3bc c:/psdk3v2/ps3dev/ppu/bin/../lib/gcc/powerpc64-ps3-elf/4.5.2/../../../../powerpc64-ps3-elf/lib\libc.a(lib_a-strtol.o)
 .debug_line    0x00000000000071fc      0x3a5 c:/psdk3v2/ps3dev/ppu/bin/../lib/gcc/powerpc64-ps3-elf/4.5.2/../../../../powerpc64-ps3-elf/lib\libc.a(lib_a-strtoll_r.o)
 .debug_line    0x00000000000075a1      0x389 c:/psdk3v2/ps3dev/ppu/bin/../lib/gcc/powerpc64-ps3-elf/4.5.2/../../../../powerpc64-ps3-elf/lib\libc.a(lib_a-strtoul.o)
 .debug_line    0x000000000000792a      0x373 c:/psdk3v2/ps3dev/ppu/bin/../lib/gcc/powerpc64-ps3-elf/4.5.2/../../../../powerpc64-ps3-elf/lib\libc.a(lib_a-strtoull_r.o)
 .debug_line    0x0000000000007c9d      0x6ef c:/psdk3v2/ps3dev/ppu/bin/../lib/gcc/powerpc64-ps3-elf/4.5.2/../../../../powerpc64-ps3-elf/lib\libc.a(lib_a-svfiscanf.o)
 .debug_line    0x000000000000838c      0xb94 c:/psdk3v2/ps3dev/ppu/bin/../lib/gcc/powerpc64-ps3-elf/4.5.2/../../../../powerpc64-ps3-elf/lib\libc.a(lib_a-svfprintf.o)
 .debug_line    0x0000000000008f20      0x3b3 c:/psdk3v2/ps3dev/ppu/bin/../lib/gcc/powerpc64-ps3-elf/4.5.2/../../../../powerpc64-ps3-elf/lib\libc.a(lib_a-ungetc.o)
 .debug_line    0x00000000000092d3      0x8df c:/psdk3v2/ps3dev/ppu/bin/../lib/gcc/powerpc64-ps3-elf/4.5.2/../../../../powerpc64-ps3-elf/lib\libc.a(lib_a-dtoa.o)
 .debug_line    0x0000000000009bb2      0x33c c:/psdk3v2/ps3dev/ppu/bin/../lib/gcc/powerpc64-ps3-elf/4.5.2/../../../../powerpc64-ps3-elf/lib\libc.a(lib_a-fclose.o)
 .debug_line    0x0000000000009eee      0x3fd c:/psdk3v2/ps3dev/ppu/bin/../lib/gcc/powerpc64-ps3-elf/4.5.2/../../../../powerpc64-ps3-elf/lib\libc.a(lib_a-fflush.o)
 .debug_line    0x000000000000a2eb      0x586 c:/psdk3v2/ps3dev/ppu/bin/../lib/gcc/powerpc64-ps3-elf/4.5.2/../../../../powerpc64-ps3-elf/lib\libc.a(lib_a-gdtoa-gethex.o)
 .debug_line    0x000000000000a871      0x1af c:/psdk3v2/ps3dev/ppu/bin/../lib/gcc/powerpc64-ps3-elf/4.5.2/../../../../powerpc64-ps3-elf/lib\libc.a(lib_a-gdtoa-hexnan.o)
 .debug_line    0x000000000000aa20      0x17a c:/psdk3v2/ps3dev/ppu/bin/../lib/gcc/powerpc64-ps3-elf/4.5.2/../../../../powerpc64-ps3-elf/lib\libc.a(lib_a-memchr.o)
 .debug_line    0x000000000000ab9a      0x194 c:/psdk3v2/ps3dev/ppu/bin/../lib/gcc/powerpc64-ps3-elf/4.5.2/../../../../powerpc64-ps3-elf/lib\libc.a(lib_a-memcpy.o)
 .debug_line    0x000000000000ad2e      0xa68 c:/psdk3v2/ps3dev/ppu/bin/../lib/gcc/powerpc64-ps3-elf/4.5.2/../../../../powerpc64-ps3-elf/lib\libc.a(lib_a-mprec.o)
 .debug_line    0x000000000000b796      0x487 c:/psdk3v2/ps3dev/ppu/bin/../lib/gcc/powerpc64-ps3-elf/4.5.2/../../../../powerpc64-ps3-elf/lib\libc.a(lib_a-reallocr.o)
 .debug_line    0x000000000000bc1d      0x806 c:/psdk3v2/ps3dev/ppu/bin/../lib/gcc/powerpc64-ps3-elf/4.5.2/../../../../powerpc64-ps3-elf/lib\libc.a(lib_a-svfiprintf.o)
 .debug_line    0x000000000000c423      0x2fc c:/psdk3v2/ps3dev/ppu/bin/../lib/gcc/powerpc64-ps3-elf/4.5.2/../../../../powerpc64-ps3-elf/lib\libc.a(lib_a-callocr.o)
 .debug_line    0x000000000000c71f      0x1a4 c:/psdk3v2/ps3dev/ppu/bin/../lib/gcc/powerpc64-ps3-elf/4.5.2/../../../../powerpc64-ps3-elf/lib\libc.a(lib_a-memmove.o)
 .debug_line    0x000000000000c8c3      0x329 c:/psdk3v2/ps3dev/ppu/bin/../lib/gcc/powerpc64-ps3-elf/4.5.2/../../../../powerpc64-ps3-elf/lib\libsysbase.a(close.o)
 .debug_line    0x000000000000cbec      0x32d c:/psdk3v2/ps3dev/ppu/bin/../lib/gcc/powerpc64-ps3-elf/4.5.2/../../../../powerpc64-ps3-elf/lib\libsysbase.a(lseek.o)
 .debug_line    0x000000000000cf19      0x32c c:/psdk3v2/ps3dev/ppu/bin/../lib/gcc/powerpc64-ps3-elf/4.5.2/../../../../powerpc64-ps3-elf/lib\libsysbase.a(read.o)
 .debug_line    0x000000000000d245      0x32d c:/psdk3v2/ps3dev/ppu/bin/../lib/gcc/powerpc64-ps3-elf/4.5.2/../../../../powerpc64-ps3-elf/lib\libsysbase.a(write.o)

.debug_frame    0x0000000000000000     0x1c68
 *(.debug_frame)
 .debug_frame   0x0000000000000000       0x38 c:/psdk3v2/ps3dev/ppu/bin/../lib/gcc/powerpc64-ps3-elf/4.5.2/../../../../powerpc64-ps3-elf/lib\libc.a(lib_a-exit.o)
 .debug_frame   0x0000000000000038       0x60 c:/psdk3v2/ps3dev/ppu/bin/../lib/gcc/powerpc64-ps3-elf/4.5.2/../../../../powerpc64-ps3-elf/lib\libc.a(lib_a-malloc.o)
 .debug_frame   0x0000000000000098       0x58 c:/psdk3v2/ps3dev/ppu/bin/../lib/gcc/powerpc64-ps3-elf/4.5.2/../../../../powerpc64-ps3-elf/lib\libc.a(lib_a-mallocr.o)
 .debug_frame   0x00000000000000f0       0x60 c:/psdk3v2/ps3dev/ppu/bin/../lib/gcc/powerpc64-ps3-elf/4.5.2/../../../../powerpc64-ps3-elf/lib\libc.a(lib_a-mlock.o)
 .debug_frame   0x0000000000000150       0x28 c:/psdk3v2/ps3dev/ppu/bin/../lib/gcc/powerpc64-ps3-elf/4.5.2/../../../../powerpc64-ps3-elf/lib\libc.a(lib_a-strcpy.o)
 .debug_frame   0x0000000000000178       0x28 c:/psdk3v2/ps3dev/ppu/bin/../lib/gcc/powerpc64-ps3-elf/4.5.2/../../../../powerpc64-ps3-elf/lib\libc.a(lib_a-strlen.o)
 .debug_frame   0x00000000000001a0       0x28 c:/psdk3v2/ps3dev/ppu/bin/../lib/gcc/powerpc64-ps3-elf/4.5.2/../../../../powerpc64-ps3-elf/lib\libc.a(lib_a-strncmp.o)
 .debug_frame   0x00000000000001c8       0x58 c:/psdk3v2/ps3dev/ppu/bin/../lib/gcc/powerpc64-ps3-elf/4.5.2/../../../../powerpc64-ps3-elf/lib\libc.a(lib_a-__call_atexit.o)
 .debug_frame   0x0000000000000220       0x78 c:/psdk3v2/ps3dev/ppu/bin/../lib/gcc/powerpc64-ps3-elf/4.5.2/../../../../powerpc64-ps3-elf/lib\libc.a(lib_a-freer.o)
 .debug_frame   0x0000000000000298       0x40 c:/psdk3v2/ps3dev/ppu/bin/../lib/gcc/powerpc64-ps3-elf/4.5.2/../../../../powerpc64-ps3-elf/lib\libc.a(lib_a-getreent.o)
 .debug_frame   0x00000000000002d8       0xd8 c:/psdk3v2/ps3dev/ppu/bin/../lib/gcc/powerpc64-ps3-elf/4.5.2/../../../../powerpc64-ps3-elf/lib\libc.a(lib_a-lock_recursive.o)
 .debug_frame   0x00000000000003b0       0x28 c:/psdk3v2/ps3dev/ppu/bin/../lib/gcc/powerpc64-ps3-elf/4.5.2/../../../../powerpc64-ps3-elf/lib\libc.a(lib_a-memset.o)
 .debug_frame   0x00000000000003d8       0x50 c:/psdk3v2/ps3dev/ppu/bin/../lib/gcc/powerpc64-ps3-elf/4.5.2/../../../../powerpc64-ps3-elf/lib\libc.a(lib_a-__atexit.o)
 .debug_frame   0x0000000000000428       0x68 c:/psdk3v2/ps3dev/ppu/bin/../lib/gcc/powerpc64-ps3-elf/4.5.2/../../../../powerpc64-ps3-elf/lib\libc.a(lib_a-lock_internal.o)
 .debug_frame   0x0000000000000490       0x30 c:/psdk3v2/ps3dev/ppu/bin/../lib/gcc/powerpc64-ps3-elf/4.5.2/../../../../powerpc64-ps3-elf/lib\libc.a(lib_a-abort.o)
 .debug_frame   0x00000000000004c0      0x178 c:/psdk3v2/ps3dev/ppu/bin/../lib/gcc/powerpc64-ps3-elf/4.5.2/../../../../powerpc64-ps3-elf/lib\libc.a(lib_a-signal.o)
 .debug_frame   0x0000000000000638       0x38 c:/psdk3v2/ps3dev/ppu/bin/../lib/gcc/powerpc64-ps3-elf/4.5.2/../../../../powerpc64-ps3-elf/lib\libsysbase.a(sbrk.o)
 .debug_frame   0x0000000000000670       0x30 c:/psdk3v2/ps3dev/ppu/bin/../lib/gcc/powerpc64-ps3-elf/4.5.2/../../../../powerpc64-ps3-elf/lib\libsysbase.a(_exit.o)
 .debug_frame   0x00000000000006a0       0xe8 c:/psdk3v2/ps3dev/ppu/bin/../lib/gcc/powerpc64-ps3-elf/4.5.2/../../../../powerpc64-ps3-elf/lib\libsysbase.a(lock.o)
 .debug_frame   0x0000000000000788       0x38 c:/psdk3v2/ps3dev/ppu/bin/../lib/gcc/powerpc64-ps3-elf/4.5.2/../../../../powerpc64-ps3-elf/lib\libsysbase.a(getpid.o)
 .debug_frame   0x00000000000007c0       0x28 c:/psdk3v2/ps3dev/ppu/bin/../lib/gcc/powerpc64-ps3-elf/4.5.2/../../../../powerpc64-ps3-elf/lib\libsysbase.a(kill.o)
 .debug_frame   0x00000000000007e8       0x38 c:/psdk3v2/ps3dev/ppu/bin/../lib/gcc/powerpc64-ps3-elf/4.5.2/../../../../powerpc64-ps3-elf/lib\libc.a(lib_a-errno.o)
 .debug_frame   0x0000000000000820       0x60 c:/psdk3v2/ps3dev/ppu/bin/../lib/gcc/powerpc64-ps3-elf/4.5.2/../../../../powerpc64-ps3-elf/lib\libc.a(lib_a-sscanf.o)
 .debug_frame   0x0000000000000880       0xe0 c:/psdk3v2/ps3dev/ppu/bin/../lib/gcc/powerpc64-ps3-elf/4.5.2/../../../../powerpc64-ps3-elf/lib\libc.a(lib_a-stdio.o)
 .debug_frame   0x0000000000000960       0x28 c:/psdk3v2/ps3dev/ppu/bin/../lib/gcc/powerpc64-ps3-elf/4.5.2/../../../../powerpc64-ps3-elf/lib\libc.a(lib_a-strncpy.o)
 .debug_frame   0x0000000000000988       0x70 c:/psdk3v2/ps3dev/ppu/bin/../lib/gcc/powerpc64-ps3-elf/4.5.2/../../../../powerpc64-ps3-elf/lib\libc.a(lib_a-svfscanf.o)
 .debug_frame   0x00000000000009f8      0x228 c:/psdk3v2/ps3dev/ppu/bin/../lib/gcc/powerpc64-ps3-elf/4.5.2/../../../../powerpc64-ps3-elf/lib\libc.a(lib_a-findfp.o)
 .debug_frame   0x0000000000000c20       0x80 c:/psdk3v2/ps3dev/ppu/bin/../lib/gcc/powerpc64-ps3-elf/4.5.2/../../../../powerpc64-ps3-elf/lib\libc.a(lib_a-fwalk.o)
 .debug_frame   0x0000000000000ca0       0x28 c:/psdk3v2/ps3dev/ppu/bin/../lib/gcc/powerpc64-ps3-elf/4.5.2/../../../../powerpc64-ps3-elf/lib\libc.a(lib_a-iswspace.o)
 .debug_frame   0x0000000000000cc8      0x108 c:/psdk3v2/ps3dev/ppu/bin/../lib/gcc/powerpc64-ps3-elf/4.5.2/../../../../powerpc64-ps3-elf/lib\libc.a(lib_a-locale.o)
 .debug_frame   0x0000000000000dd0       0x88 c:/psdk3v2/ps3dev/ppu/bin/../lib/gcc/powerpc64-ps3-elf/4.5.2/../../../../powerpc64-ps3-elf/lib\libc.a(lib_a-mbrtowc.o)
 .debug_frame   0x0000000000000e58       0x58 c:/psdk3v2/ps3dev/ppu/bin/../lib/gcc/powerpc64-ps3-elf/4.5.2/../../../../powerpc64-ps3-elf/lib\libc.a(lib_a-mbtowc_r.o)
 .debug_frame   0x0000000000000eb0       0x28 c:/psdk3v2/ps3dev/ppu/bin/../lib/gcc/powerpc64-ps3-elf/4.5.2/../../../../powerpc64-ps3-elf/lib\libc.a(lib_a-s_fpclassify.o)
 .debug_frame   0x0000000000000ed8       0x28 c:/psdk3v2/ps3dev/ppu/bin/../lib/gcc/powerpc64-ps3-elf/4.5.2/../../../../powerpc64-ps3-elf/lib\libc.a(lib_a-sccl.o)
 .debug_frame   0x0000000000000f00       0x28 c:/psdk3v2/ps3dev/ppu/bin/../lib/gcc/powerpc64-ps3-elf/4.5.2/../../../../powerpc64-ps3-elf/lib\libc.a(lib_a-sf_nan.o)
 .debug_frame   0x0000000000000f28       0x60 c:/psdk3v2/ps3dev/ppu/bin/../lib/gcc/powerpc64-ps3-elf/4.5.2/../../../../powerpc64-ps3-elf/lib\libc.a(lib_a-sprintf.o)
 .debug_frame   0x0000000000000f88       0x28 c:/psdk3v2/ps3dev/ppu/bin/../lib/gcc/powerpc64-ps3-elf/4.5.2/../../../../powerpc64-ps3-elf/lib\libc.a(lib_a-strcmp.o)
 .debug_frame   0x0000000000000fb0       0xe8 c:/psdk3v2/ps3dev/ppu/bin/../lib/gcc/powerpc64-ps3-elf/4.5.2/../../../../powerpc64-ps3-elf/lib\libc.a(lib_a-strtod.o)
 .debug_frame   0x0000000000001098       0x68 c:/psdk3v2/ps3dev/ppu/bin/../lib/gcc/powerpc64-ps3-elf/4.5.2/../../../../powerpc64-ps3-elf/lib\libc.a(lib_a-strtol.o)
 .debug_frame   0x0000000000001100       0x38 c:/psdk3v2/ps3dev/ppu/bin/../lib/gcc/powerpc64-ps3-elf/4.5.2/../../../../powerpc64-ps3-elf/lib\libc.a(lib_a-strtoll_r.o)
 .debug_frame   0x0000000000001138       0x68 c:/psdk3v2/ps3dev/ppu/bin/../lib/gcc/powerpc64-ps3-elf/4.5.2/../../../../powerpc64-ps3-elf/lib\libc.a(lib_a-strtoul.o)
 .debug_frame   0x00000000000011a0       0x38 c:/psdk3v2/ps3dev/ppu/bin/../lib/gcc/powerpc64-ps3-elf/4.5.2/../../../../powerpc64-ps3-elf/lib\libc.a(lib_a-strtoull_r.o)
 .debug_frame   0x00000000000011d8      0x110 c:/psdk3v2/ps3dev/ppu/bin/../lib/gcc/powerpc64-ps3-elf/4.5.2/../../../../powerpc64-ps3-elf/lib\libc.a(lib_a-svfiscanf.o)
 .debug_frame   0x00000000000012e8       0x70 c:/psdk3v2/ps3dev/ppu/bin/../lib/gcc/powerpc64-ps3-elf/4.5.2/../../../../powerpc64-ps3-elf/lib\libc.a(lib_a-svfprintf.o)
 .debug_frame   0x0000000000001358       0xb0 c:/psdk3v2/ps3dev/ppu/bin/../lib/gcc/powerpc64-ps3-elf/4.5.2/../../../../powerpc64-ps3-elf/lib\libc.a(lib_a-ungetc.o)
 .debug_frame   0x0000000000001408       0xa0 c:/psdk3v2/ps3dev/ppu/bin/../lib/gcc/powerpc64-ps3-elf/4.5.2/../../../../powerpc64-ps3-elf/lib\libc.a(lib_a-dtoa.o)
 .debug_frame   0x00000000000014a8       0x78 c:/psdk3v2/ps3dev/ppu/bin/../lib/gcc/powerpc64-ps3-elf/4.5.2/../../../../powerpc64-ps3-elf/lib\libc.a(lib_a-fclose.o)
 .debug_frame   0x0000000000001520       0x80 c:/psdk3v2/ps3dev/ppu/bin/../lib/gcc/powerpc64-ps3-elf/4.5.2/../../../../powerpc64-ps3-elf/lib\libc.a(lib_a-fflush.o)
 .debug_frame   0x00000000000015a0       0x90 c:/psdk3v2/ps3dev/ppu/bin/../lib/gcc/powerpc64-ps3-elf/4.5.2/../../../../powerpc64-ps3-elf/lib\libc.a(lib_a-gdtoa-gethex.o)
 .debug_frame   0x0000000000001630       0x50 c:/psdk3v2/ps3dev/ppu/bin/../lib/gcc/powerpc64-ps3-elf/4.5.2/../../../../powerpc64-ps3-elf/lib\libc.a(lib_a-gdtoa-hexnan.o)
 .debug_frame   0x0000000000001680       0x28 c:/psdk3v2/ps3dev/ppu/bin/../lib/gcc/powerpc64-ps3-elf/4.5.2/../../../../powerpc64-ps3-elf/lib\libc.a(lib_a-memchr.o)
 .debug_frame   0x00000000000016a8       0x28 c:/psdk3v2/ps3dev/ppu/bin/../lib/gcc/powerpc64-ps3-elf/4.5.2/../../../../powerpc64-ps3-elf/lib\libc.a(lib_a-memcpy.o)
 .debug_frame   0x00000000000016d0      0x330 c:/psdk3v2/ps3dev/ppu/bin/../lib/gcc/powerpc64-ps3-elf/4.5.2/../../../../powerpc64-ps3-elf/lib\libc.a(lib_a-mprec.o)
 .debug_frame   0x0000000000001a00       0x68 c:/psdk3v2/ps3dev/ppu/bin/../lib/gcc/powerpc64-ps3-elf/4.5.2/../../../../powerpc64-ps3-elf/lib\libc.a(lib_a-reallocr.o)
 .debug_frame   0x0000000000001a68       0xb8 c:/psdk3v2/ps3dev/ppu/bin/../lib/gcc/powerpc64-ps3-elf/4.5.2/../../../../powerpc64-ps3-elf/lib\libc.a(lib_a-svfiprintf.o)
 .debug_frame   0x0000000000001b20       0x40 c:/psdk3v2/ps3dev/ppu/bin/../lib/gcc/powerpc64-ps3-elf/4.5.2/../../../../powerpc64-ps3-elf/lib\libc.a(lib_a-callocr.o)
 .debug_frame   0x0000000000001b60       0x28 c:/psdk3v2/ps3dev/ppu/bin/../lib/gcc/powerpc64-ps3-elf/4.5.2/../../../../powerpc64-ps3-elf/lib\libc.a(lib_a-memmove.o)
 .debug_frame   0x0000000000001b88       0x38 c:/psdk3v2/ps3dev/ppu/bin/../lib/gcc/powerpc64-ps3-elf/4.5.2/../../../../powerpc64-ps3-elf/lib\libsysbase.a(close.o)
 .debug_frame   0x0000000000001bc0       0x38 c:/psdk3v2/ps3dev/ppu/bin/../lib/gcc/powerpc64-ps3-elf/4.5.2/../../../../powerpc64-ps3-elf/lib\libsysbase.a(lseek.o)
 .debug_frame   0x0000000000001bf8       0x38 c:/psdk3v2/ps3dev/ppu/bin/../lib/gcc/powerpc64-ps3-elf/4.5.2/../../../../powerpc64-ps3-elf/lib\libsysbase.a(read.o)
 .debug_frame   0x0000000000001c30       0x38 c:/psdk3v2/ps3dev/ppu/bin/../lib/gcc/powerpc64-ps3-elf/4.5.2/../../../../powerpc64-ps3-elf/lib\libsysbase.a(write.o)

.debug_str      0x0000000000000000     0x28fc
 *(.debug_str)
 .debug_str     0x0000000000000000      0x8ba c:/psdk3v2/ps3dev/ppu/bin/../lib/gcc/powerpc64-ps3-elf/4.5.2/../../../../powerpc64-ps3-elf/lib\libsysbase.a(syscalls.o)
                                        0x9e1 (size before relaxing)
 .debug_str     0x00000000000008ba       0xbc c:/psdk3v2/ps3dev/ppu/bin/../lib/gcc/powerpc64-ps3-elf/4.5.2/../../../../powerpc64-ps3-elf/lib\libc.a(lib_a-exit.o)
                                        0x570 (size before relaxing)
 .debug_str     0x0000000000000976       0xb0 c:/psdk3v2/ps3dev/ppu/bin/../lib/gcc/powerpc64-ps3-elf/4.5.2/../../../../powerpc64-ps3-elf/lib\libc.a(lib_a-impure.o)
                                        0x57e (size before relaxing)
 .debug_str     0x0000000000000a26       0x37 c:/psdk3v2/ps3dev/ppu/bin/../lib/gcc/powerpc64-ps3-elf/4.5.2/../../../../powerpc64-ps3-elf/lib\libc.a(lib_a-malloc.o)
                                        0x15a (size before relaxing)
 .debug_str     0x0000000000000a5d      0x1f8 c:/psdk3v2/ps3dev/ppu/bin/../lib/gcc/powerpc64-ps3-elf/4.5.2/../../../../powerpc64-ps3-elf/lib\libc.a(lib_a-mallocr.o)
                                        0x755 (size before relaxing)
 .debug_str     0x0000000000000c55       0x5d c:/psdk3v2/ps3dev/ppu/bin/../lib/gcc/powerpc64-ps3-elf/4.5.2/../../../../powerpc64-ps3-elf/lib\libc.a(lib_a-mlock.o)
                                        0x587 (size before relaxing)
 .debug_str     0x0000000000000cb2       0xcf c:/psdk3v2/ps3dev/ppu/bin/../lib/gcc/powerpc64-ps3-elf/4.5.2/../../../../powerpc64-ps3-elf/lib\libc.a(lib_a-strcpy.o)
                                        0x164 (size before relaxing)
 .debug_str     0x0000000000000d81       0x3f c:/psdk3v2/ps3dev/ppu/bin/../lib/gcc/powerpc64-ps3-elf/4.5.2/../../../../powerpc64-ps3-elf/lib\libc.a(lib_a-strlen.o)
                                        0x15c (size before relaxing)
 .debug_str     0x0000000000000dc0       0x34 c:/psdk3v2/ps3dev/ppu/bin/../lib/gcc/powerpc64-ps3-elf/4.5.2/../../../../powerpc64-ps3-elf/lib\libc.a(lib_a-strncmp.o)
                                        0x14b (size before relaxing)
 .debug_str     0x0000000000000df4       0x5f c:/psdk3v2/ps3dev/ppu/bin/../lib/gcc/powerpc64-ps3-elf/4.5.2/../../../../powerpc64-ps3-elf/lib\libc.a(lib_a-__call_atexit.o)
                                        0x5a6 (size before relaxing)
 .debug_str     0x0000000000000e53       0x3c c:/psdk3v2/ps3dev/ppu/bin/../lib/gcc/powerpc64-ps3-elf/4.5.2/../../../../powerpc64-ps3-elf/lib\libc.a(lib_a-freer.o)
                                        0x6a7 (size before relaxing)
 .debug_str     0x0000000000000e8f       0xd0 c:/psdk3v2/ps3dev/ppu/bin/../lib/gcc/powerpc64-ps3-elf/4.5.2/../../../../powerpc64-ps3-elf/lib\libc.a(lib_a-getreent.o)
                                        0x57f (size before relaxing)
 .debug_str     0x0000000000000f5f      0x10e c:/psdk3v2/ps3dev/ppu/bin/../lib/gcc/powerpc64-ps3-elf/4.5.2/../../../../powerpc64-ps3-elf/lib\libc.a(lib_a-lock_recursive.o)
                                        0x2a1 (size before relaxing)
 .debug_str     0x000000000000106d       0x32 c:/psdk3v2/ps3dev/ppu/bin/../lib/gcc/powerpc64-ps3-elf/4.5.2/../../../../powerpc64-ps3-elf/lib\libc.a(lib_a-memset.o)
                                        0x15d (size before relaxing)
 .debug_str     0x000000000000109f       0x71 c:/psdk3v2/ps3dev/ppu/bin/../lib/gcc/powerpc64-ps3-elf/4.5.2/../../../../powerpc64-ps3-elf/lib\libc.a(lib_a-__atexit.o)
                                        0x5c6 (size before relaxing)
 .debug_str     0x0000000000001110       0x67 c:/psdk3v2/ps3dev/ppu/bin/../lib/gcc/powerpc64-ps3-elf/4.5.2/../../../../powerpc64-ps3-elf/lib\libc.a(lib_a-lock_internal.o)
                                        0x23f (size before relaxing)
 .debug_str     0x0000000000001177       0x30 c:/psdk3v2/ps3dev/ppu/bin/../lib/gcc/powerpc64-ps3-elf/4.5.2/../../../../powerpc64-ps3-elf/lib\libc.a(lib_a-abort.o)
                                        0x140 (size before relaxing)
 .debug_str     0x00000000000011a7      0x100 c:/psdk3v2/ps3dev/ppu/bin/../lib/gcc/powerpc64-ps3-elf/4.5.2/../../../../powerpc64-ps3-elf/lib\libc.a(lib_a-signal.o)
                                        0x5c5 (size before relaxing)
 .debug_str     0x00000000000012a7       0x34 c:/psdk3v2/ps3dev/ppu/bin/../lib/gcc/powerpc64-ps3-elf/4.5.2/../../../../powerpc64-ps3-elf/lib\libsysbase.a(sbrk.o)
                                        0x9ea (size before relaxing)
 .debug_str     0x00000000000012db       0x2e c:/psdk3v2/ps3dev/ppu/bin/../lib/gcc/powerpc64-ps3-elf/4.5.2/../../../../powerpc64-ps3-elf/lib\libsysbase.a(_exit.o)
                                        0x9e4 (size before relaxing)
 .debug_str     0x0000000000001309       0x8e c:/psdk3v2/ps3dev/ppu/bin/../lib/gcc/powerpc64-ps3-elf/4.5.2/../../../../powerpc64-ps3-elf/lib\libsysbase.a(lock.o)
                                        0xa51 (size before relaxing)
 .debug_str     0x0000000000001397       0x33 c:/psdk3v2/ps3dev/ppu/bin/../lib/gcc/powerpc64-ps3-elf/4.5.2/../../../../powerpc64-ps3-elf/lib\libsysbase.a(getpid.o)
                                        0x9e9 (size before relaxing)
 .debug_str     0x00000000000013ca       0x2f c:/psdk3v2/ps3dev/ppu/bin/../lib/gcc/powerpc64-ps3-elf/4.5.2/../../../../powerpc64-ps3-elf/lib\libsysbase.a(kill.o)
                                        0x55a (size before relaxing)
 .debug_str     0x00000000000013f9       0xab c:/psdk3v2/ps3dev/ppu/bin/../lib/gcc/powerpc64-ps3-elf/4.5.2/../../../../powerpc64-ps3-elf/lib\libc.a(lib_a-errno.o)
                                        0x140 (size before relaxing)
 .debug_str     0x00000000000014a4       0xd6 c:/psdk3v2/ps3dev/ppu/bin/../lib/gcc/powerpc64-ps3-elf/4.5.2/../../../../powerpc64-ps3-elf/lib\libc.a(lib_a-sscanf.o)
                                        0x592 (size before relaxing)
 .debug_str     0x000000000000157a       0x5d c:/psdk3v2/ps3dev/ppu/bin/../lib/gcc/powerpc64-ps3-elf/4.5.2/../../../../powerpc64-ps3-elf/lib\libc.a(lib_a-stdio.o)
                                        0x5a5 (size before relaxing)
 .debug_str     0x00000000000015d7       0x34 c:/psdk3v2/ps3dev/ppu/bin/../lib/gcc/powerpc64-ps3-elf/4.5.2/../../../../powerpc64-ps3-elf/lib\libc.a(lib_a-strncpy.o)
                                        0x173 (size before relaxing)
 .debug_str     0x000000000000160b      0x145 c:/psdk3v2/ps3dev/ppu/bin/../lib/gcc/powerpc64-ps3-elf/4.5.2/../../../../powerpc64-ps3-elf/lib\libc.a(lib_a-svfscanf.o)
                                        0x6d8 (size before relaxing)
 .debug_str     0x0000000000001750       0xac c:/psdk3v2/ps3dev/ppu/bin/../lib/gcc/powerpc64-ps3-elf/4.5.2/../../../../powerpc64-ps3-elf/lib\libc.a(lib_a-ctype_.o)
                                         0xdd (size before relaxing)
 .debug_str     0x00000000000017fc      0x16d c:/psdk3v2/ps3dev/ppu/bin/../lib/gcc/powerpc64-ps3-elf/4.5.2/../../../../powerpc64-ps3-elf/lib\libc.a(lib_a-findfp.o)
                                        0x6d1 (size before relaxing)
 .debug_str     0x0000000000001969       0x4e c:/psdk3v2/ps3dev/ppu/bin/../lib/gcc/powerpc64-ps3-elf/4.5.2/../../../../powerpc64-ps3-elf/lib\libc.a(lib_a-fwalk.o)
                                        0x599 (size before relaxing)
 .debug_str     0x00000000000019b7       0x35 c:/psdk3v2/ps3dev/ppu/bin/../lib/gcc/powerpc64-ps3-elf/4.5.2/../../../../powerpc64-ps3-elf/lib\libc.a(lib_a-iswspace.o)
                                        0x159 (size before relaxing)
 .debug_str     0x00000000000019ec      0x281 c:/psdk3v2/ps3dev/ppu/bin/../lib/gcc/powerpc64-ps3-elf/4.5.2/../../../../powerpc64-ps3-elf/lib\libc.a(lib_a-locale.o)
                                        0x7c8 (size before relaxing)
 .debug_str     0x0000000000001c6d       0x4f c:/psdk3v2/ps3dev/ppu/bin/../lib/gcc/powerpc64-ps3-elf/4.5.2/../../../../powerpc64-ps3-elf/lib\libc.a(lib_a-mbrtowc.o)
                                        0x592 (size before relaxing)
 .debug_str     0x0000000000001cbc       0x4c c:/psdk3v2/ps3dev/ppu/bin/../lib/gcc/powerpc64-ps3-elf/4.5.2/../../../../powerpc64-ps3-elf/lib\libc.a(lib_a-mbtowc_r.o)
                                        0x5a6 (size before relaxing)
 .debug_str     0x0000000000001d08       0xe7 c:/psdk3v2/ps3dev/ppu/bin/../lib/gcc/powerpc64-ps3-elf/4.5.2/../../../../powerpc64-ps3-elf/lib\libc.a(lib_a-s_fpclassify.o)
                                        0x19b (size before relaxing)
 .debug_str     0x0000000000001def       0x3f c:/psdk3v2/ps3dev/ppu/bin/../lib/gcc/powerpc64-ps3-elf/4.5.2/../../../../powerpc64-ps3-elf/lib\libc.a(lib_a-sccl.o)
                                        0x14e (size before relaxing)
 .debug_str     0x0000000000001e2e       0x30 c:/psdk3v2/ps3dev/ppu/bin/../lib/gcc/powerpc64-ps3-elf/4.5.2/../../../../powerpc64-ps3-elf/lib\libc.a(lib_a-sf_nan.o)
                                        0x160 (size before relaxing)
 .debug_str     0x0000000000001e5e       0x3e c:/psdk3v2/ps3dev/ppu/bin/../lib/gcc/powerpc64-ps3-elf/4.5.2/../../../../powerpc64-ps3-elf/lib\libc.a(lib_a-sprintf.o)
                                        0x595 (size before relaxing)
 .debug_str     0x0000000000001e9c       0x32 c:/psdk3v2/ps3dev/ppu/bin/../lib/gcc/powerpc64-ps3-elf/4.5.2/../../../../powerpc64-ps3-elf/lib\libc.a(lib_a-strcmp.o)
                                        0x142 (size before relaxing)
 .debug_str     0x0000000000001ece      0x1e1 c:/psdk3v2/ps3dev/ppu/bin/../lib/gcc/powerpc64-ps3-elf/4.5.2/../../../../powerpc64-ps3-elf/lib\libc.a(lib_a-strtod.o)
                                        0x74e (size before relaxing)
 .debug_str     0x00000000000020af       0x51 c:/psdk3v2/ps3dev/ppu/bin/../lib/gcc/powerpc64-ps3-elf/4.5.2/../../../../powerpc64-ps3-elf/lib\libc.a(lib_a-strtol.o)
                                        0x598 (size before relaxing)
 .debug_str     0x0000000000002100       0x39 c:/psdk3v2/ps3dev/ppu/bin/../lib/gcc/powerpc64-ps3-elf/4.5.2/../../../../powerpc64-ps3-elf/lib\libc.a(lib_a-strtoll_r.o)
                                        0x595 (size before relaxing)
 .debug_str     0x0000000000002139       0x3f c:/psdk3v2/ps3dev/ppu/bin/../lib/gcc/powerpc64-ps3-elf/4.5.2/../../../../powerpc64-ps3-elf/lib\libc.a(lib_a-strtoul.o)
                                        0x59b (size before relaxing)
 .debug_str     0x0000000000002178       0x3b c:/psdk3v2/ps3dev/ppu/bin/../lib/gcc/powerpc64-ps3-elf/4.5.2/../../../../powerpc64-ps3-elf/lib\libc.a(lib_a-strtoull_r.o)
                                        0x597 (size before relaxing)
 .debug_str     0x00000000000021b3       0x37 c:/psdk3v2/ps3dev/ppu/bin/../lib/gcc/powerpc64-ps3-elf/4.5.2/../../../../powerpc64-ps3-elf/lib\libc.a(lib_a-svfiscanf.o)
                                        0x6b3 (size before relaxing)
 .debug_str     0x00000000000021ea      0x164 c:/psdk3v2/ps3dev/ppu/bin/../lib/gcc/powerpc64-ps3-elf/4.5.2/../../../../powerpc64-ps3-elf/lib\libc.a(lib_a-svfprintf.o)
                                        0x74c (size before relaxing)
 .debug_str     0x000000000000234e       0x45 c:/psdk3v2/ps3dev/ppu/bin/../lib/gcc/powerpc64-ps3-elf/4.5.2/../../../../powerpc64-ps3-elf/lib\libc.a(lib_a-ungetc.o)
                                        0x57f (size before relaxing)
 .debug_str     0x0000000000002393       0xc9 c:/psdk3v2/ps3dev/ppu/bin/../lib/gcc/powerpc64-ps3-elf/4.5.2/../../../../powerpc64-ps3-elf/lib\libc.a(lib_a-dtoa.o)
                                        0x665 (size before relaxing)
 .debug_str     0x000000000000245c       0x3b c:/psdk3v2/ps3dev/ppu/bin/../lib/gcc/powerpc64-ps3-elf/4.5.2/../../../../powerpc64-ps3-elf/lib\libc.a(lib_a-fclose.o)
                                        0x56e (size before relaxing)
 .debug_str     0x0000000000002497       0x4c c:/psdk3v2/ps3dev/ppu/bin/../lib/gcc/powerpc64-ps3-elf/4.5.2/../../../../powerpc64-ps3-elf/lib\libc.a(lib_a-fflush.o)
                                        0x594 (size before relaxing)
 .debug_str     0x00000000000024e3       0xde c:/psdk3v2/ps3dev/ppu/bin/../lib/gcc/powerpc64-ps3-elf/4.5.2/../../../../powerpc64-ps3-elf/lib\libc.a(lib_a-gdtoa-gethex.o)
                                        0x74a (size before relaxing)
 .debug_str     0x00000000000025c1       0x42 c:/psdk3v2/ps3dev/ppu/bin/../lib/gcc/powerpc64-ps3-elf/4.5.2/../../../../powerpc64-ps3-elf/lib\libc.a(lib_a-gdtoa-hexnan.o)
                                        0x278 (size before relaxing)
 .debug_str     0x0000000000002603       0x40 c:/psdk3v2/ps3dev/ppu/bin/../lib/gcc/powerpc64-ps3-elf/4.5.2/../../../../powerpc64-ps3-elf/lib\libc.a(lib_a-memchr.o)
                                        0x163 (size before relaxing)
 .debug_str     0x0000000000002643       0x37 c:/psdk3v2/ps3dev/ppu/bin/../lib/gcc/powerpc64-ps3-elf/4.5.2/../../../../powerpc64-ps3-elf/lib\libc.a(lib_a-memcpy.o)
                                        0x170 (size before relaxing)
 .debug_str     0x000000000000267a       0xe8 c:/psdk3v2/ps3dev/ppu/bin/../lib/gcc/powerpc64-ps3-elf/4.5.2/../../../../powerpc64-ps3-elf/lib\libc.a(lib_a-mprec.o)
                                        0x672 (size before relaxing)
 .debug_str     0x0000000000002762       0x61 c:/psdk3v2/ps3dev/ppu/bin/../lib/gcc/powerpc64-ps3-elf/4.5.2/../../../../powerpc64-ps3-elf/lib\libc.a(lib_a-reallocr.o)
                                        0x627 (size before relaxing)
 .debug_str     0x00000000000027c3       0x21 c:/psdk3v2/ps3dev/ppu/bin/../lib/gcc/powerpc64-ps3-elf/4.5.2/../../../../powerpc64-ps3-elf/lib\libc.a(lib_a-svfiprintf.o)
                                        0x6bf (size before relaxing)
 .debug_str     0x00000000000027e4       0x19 c:/psdk3v2/ps3dev/ppu/bin/../lib/gcc/powerpc64-ps3-elf/4.5.2/../../../../powerpc64-ps3-elf/lib\libc.a(lib_a-callocr.o)
                                        0x5a6 (size before relaxing)
 .debug_str     0x00000000000027fd       0x3d c:/psdk3v2/ps3dev/ppu/bin/../lib/gcc/powerpc64-ps3-elf/4.5.2/../../../../powerpc64-ps3-elf/lib\libc.a(lib_a-memmove.o)
                                        0x17c (size before relaxing)
 .debug_str     0x000000000000283a       0x31 c:/psdk3v2/ps3dev/ppu/bin/../lib/gcc/powerpc64-ps3-elf/4.5.2/../../../../powerpc64-ps3-elf/lib\libsysbase.a(close.o)
                                        0x9e7 (size before relaxing)
 .debug_str     0x000000000000286b       0x31 c:/psdk3v2/ps3dev/ppu/bin/../lib/gcc/powerpc64-ps3-elf/4.5.2/../../../../powerpc64-ps3-elf/lib\libsysbase.a(lseek.o)
                                        0x9e7 (size before relaxing)
 .debug_str     0x000000000000289c       0x2f c:/psdk3v2/ps3dev/ppu/bin/../lib/gcc/powerpc64-ps3-elf/4.5.2/../../../../powerpc64-ps3-elf/lib\libsysbase.a(read.o)
                                        0x9e5 (size before relaxing)
 .debug_str     0x00000000000028cb       0x31 c:/psdk3v2/ps3dev/ppu/bin/../lib/gcc/powerpc64-ps3-elf/4.5.2/../../../../powerpc64-ps3-elf/lib\libsysbase.a(write.o)
                                        0x9e7 (size before relaxing)

.debug_loc      0x0000000000000000    0x1ee25
 *(.debug_loc)
 .debug_loc     0x0000000000000000       0x5c c:/psdk3v2/ps3dev/ppu/bin/../lib/gcc/powerpc64-ps3-elf/4.5.2/../../../../powerpc64-ps3-elf/lib\libc.a(lib_a-exit.o)
 .debug_loc     0x000000000000005c      0x106 c:/psdk3v2/ps3dev/ppu/bin/../lib/gcc/powerpc64-ps3-elf/4.5.2/../../../../powerpc64-ps3-elf/lib\libc.a(lib_a-malloc.o)
 .debug_loc     0x0000000000000162     0x11b0 c:/psdk3v2/ps3dev/ppu/bin/../lib/gcc/powerpc64-ps3-elf/4.5.2/../../../../powerpc64-ps3-elf/lib\libc.a(lib_a-mallocr.o)
 .debug_loc     0x0000000000001312       0xe0 c:/psdk3v2/ps3dev/ppu/bin/../lib/gcc/powerpc64-ps3-elf/4.5.2/../../../../powerpc64-ps3-elf/lib\libc.a(lib_a-mlock.o)
 .debug_loc     0x00000000000013f2      0x144 c:/psdk3v2/ps3dev/ppu/bin/../lib/gcc/powerpc64-ps3-elf/4.5.2/../../../../powerpc64-ps3-elf/lib\libc.a(lib_a-strcpy.o)
 .debug_loc     0x0000000000001536      0x13e c:/psdk3v2/ps3dev/ppu/bin/../lib/gcc/powerpc64-ps3-elf/4.5.2/../../../../powerpc64-ps3-elf/lib\libc.a(lib_a-strlen.o)
 .debug_loc     0x0000000000001674      0x292 c:/psdk3v2/ps3dev/ppu/bin/../lib/gcc/powerpc64-ps3-elf/4.5.2/../../../../powerpc64-ps3-elf/lib\libc.a(lib_a-strncmp.o)
 .debug_loc     0x0000000000001906      0x287 c:/psdk3v2/ps3dev/ppu/bin/../lib/gcc/powerpc64-ps3-elf/4.5.2/../../../../powerpc64-ps3-elf/lib\libc.a(lib_a-__call_atexit.o)
 .debug_loc     0x0000000000001b8d      0x79a c:/psdk3v2/ps3dev/ppu/bin/../lib/gcc/powerpc64-ps3-elf/4.5.2/../../../../powerpc64-ps3-elf/lib\libc.a(lib_a-freer.o)
 .debug_loc     0x0000000000002327       0xc8 c:/psdk3v2/ps3dev/ppu/bin/../lib/gcc/powerpc64-ps3-elf/4.5.2/../../../../powerpc64-ps3-elf/lib\libc.a(lib_a-getreent.o)
 .debug_loc     0x00000000000023ef      0x269 c:/psdk3v2/ps3dev/ppu/bin/../lib/gcc/powerpc64-ps3-elf/4.5.2/../../../../powerpc64-ps3-elf/lib\libc.a(lib_a-lock_recursive.o)
 .debug_loc     0x0000000000002658      0x2a9 c:/psdk3v2/ps3dev/ppu/bin/../lib/gcc/powerpc64-ps3-elf/4.5.2/../../../../powerpc64-ps3-elf/lib\libc.a(lib_a-memset.o)
 .debug_loc     0x0000000000002901      0x1f5 c:/psdk3v2/ps3dev/ppu/bin/../lib/gcc/powerpc64-ps3-elf/4.5.2/../../../../powerpc64-ps3-elf/lib\libc.a(lib_a-__atexit.o)
 .debug_loc     0x0000000000002af6      0x10d c:/psdk3v2/ps3dev/ppu/bin/../lib/gcc/powerpc64-ps3-elf/4.5.2/../../../../powerpc64-ps3-elf/lib\libc.a(lib_a-lock_internal.o)
 .debug_loc     0x0000000000002c03       0x39 c:/psdk3v2/ps3dev/ppu/bin/../lib/gcc/powerpc64-ps3-elf/4.5.2/../../../../powerpc64-ps3-elf/lib\libc.a(lib_a-abort.o)
 .debug_loc     0x0000000000002c3c      0x72d c:/psdk3v2/ps3dev/ppu/bin/../lib/gcc/powerpc64-ps3-elf/4.5.2/../../../../powerpc64-ps3-elf/lib\libc.a(lib_a-signal.o)
 .debug_loc     0x0000000000003369       0xf5 c:/psdk3v2/ps3dev/ppu/bin/../lib/gcc/powerpc64-ps3-elf/4.5.2/../../../../powerpc64-ps3-elf/lib\libsysbase.a(sbrk.o)
 .debug_loc     0x000000000000345e       0x5c c:/psdk3v2/ps3dev/ppu/bin/../lib/gcc/powerpc64-ps3-elf/4.5.2/../../../../powerpc64-ps3-elf/lib\libsysbase.a(_exit.o)
 .debug_loc     0x00000000000034ba      0x556 c:/psdk3v2/ps3dev/ppu/bin/../lib/gcc/powerpc64-ps3-elf/4.5.2/../../../../powerpc64-ps3-elf/lib\libsysbase.a(lock.o)
 .debug_loc     0x0000000000003a10       0xab c:/psdk3v2/ps3dev/ppu/bin/../lib/gcc/powerpc64-ps3-elf/4.5.2/../../../../powerpc64-ps3-elf/lib\libsysbase.a(getpid.o)
 .debug_loc     0x0000000000003abb       0x23 c:/psdk3v2/ps3dev/ppu/bin/../lib/gcc/powerpc64-ps3-elf/4.5.2/../../../../powerpc64-ps3-elf/lib\libsysbase.a(kill.o)
 .debug_loc     0x0000000000003ade       0x4d c:/psdk3v2/ps3dev/ppu/bin/../lib/gcc/powerpc64-ps3-elf/4.5.2/../../../../powerpc64-ps3-elf/lib\libc.a(lib_a-errno.o)
 .debug_loc     0x0000000000003b2b      0x16f c:/psdk3v2/ps3dev/ppu/bin/../lib/gcc/powerpc64-ps3-elf/4.5.2/../../../../powerpc64-ps3-elf/lib\libc.a(lib_a-sscanf.o)
 .debug_loc     0x0000000000003c9a      0x4dd c:/psdk3v2/ps3dev/ppu/bin/../lib/gcc/powerpc64-ps3-elf/4.5.2/../../../../powerpc64-ps3-elf/lib\libc.a(lib_a-stdio.o)
 .debug_loc     0x0000000000004177      0x1f5 c:/psdk3v2/ps3dev/ppu/bin/../lib/gcc/powerpc64-ps3-elf/4.5.2/../../../../powerpc64-ps3-elf/lib\libc.a(lib_a-strncpy.o)
 .debug_loc     0x000000000000436c     0x2535 c:/psdk3v2/ps3dev/ppu/bin/../lib/gcc/powerpc64-ps3-elf/4.5.2/../../../../powerpc64-ps3-elf/lib\libc.a(lib_a-svfscanf.o)
 .debug_loc     0x00000000000068a1      0x7e6 c:/psdk3v2/ps3dev/ppu/bin/../lib/gcc/powerpc64-ps3-elf/4.5.2/../../../../powerpc64-ps3-elf/lib\libc.a(lib_a-findfp.o)
 .debug_loc     0x0000000000007087      0x566 c:/psdk3v2/ps3dev/ppu/bin/../lib/gcc/powerpc64-ps3-elf/4.5.2/../../../../powerpc64-ps3-elf/lib\libc.a(lib_a-fwalk.o)
 .debug_loc     0x00000000000075ed       0x23 c:/psdk3v2/ps3dev/ppu/bin/../lib/gcc/powerpc64-ps3-elf/4.5.2/../../../../powerpc64-ps3-elf/lib\libc.a(lib_a-iswspace.o)
 .debug_loc     0x0000000000007610      0x21a c:/psdk3v2/ps3dev/ppu/bin/../lib/gcc/powerpc64-ps3-elf/4.5.2/../../../../powerpc64-ps3-elf/lib\libc.a(lib_a-locale.o)
 .debug_loc     0x000000000000782a      0x4f8 c:/psdk3v2/ps3dev/ppu/bin/../lib/gcc/powerpc64-ps3-elf/4.5.2/../../../../powerpc64-ps3-elf/lib\libc.a(lib_a-mbrtowc.o)
 .debug_loc     0x0000000000007d22      0x18e c:/psdk3v2/ps3dev/ppu/bin/../lib/gcc/powerpc64-ps3-elf/4.5.2/../../../../powerpc64-ps3-elf/lib\libc.a(lib_a-mbtowc_r.o)
 .debug_loc     0x0000000000007eb0       0x23 c:/psdk3v2/ps3dev/ppu/bin/../lib/gcc/powerpc64-ps3-elf/4.5.2/../../../../powerpc64-ps3-elf/lib\libc.a(lib_a-s_fpclassify.o)
 .debug_loc     0x0000000000007ed3      0x242 c:/psdk3v2/ps3dev/ppu/bin/../lib/gcc/powerpc64-ps3-elf/4.5.2/../../../../powerpc64-ps3-elf/lib\libc.a(lib_a-sccl.o)
 .debug_loc     0x0000000000008115      0x16f c:/psdk3v2/ps3dev/ppu/bin/../lib/gcc/powerpc64-ps3-elf/4.5.2/../../../../powerpc64-ps3-elf/lib\libc.a(lib_a-sprintf.o)
 .debug_loc     0x0000000000008284      0x18f c:/psdk3v2/ps3dev/ppu/bin/../lib/gcc/powerpc64-ps3-elf/4.5.2/../../../../powerpc64-ps3-elf/lib\libc.a(lib_a-strcmp.o)
 .debug_loc     0x0000000000008413     0x2e39 c:/psdk3v2/ps3dev/ppu/bin/../lib/gcc/powerpc64-ps3-elf/4.5.2/../../../../powerpc64-ps3-elf/lib\libc.a(lib_a-strtod.o)
 .debug_loc     0x000000000000b24c      0x60d c:/psdk3v2/ps3dev/ppu/bin/../lib/gcc/powerpc64-ps3-elf/4.5.2/../../../../powerpc64-ps3-elf/lib\libc.a(lib_a-strtol.o)
 .debug_loc     0x000000000000b859      0x50b c:/psdk3v2/ps3dev/ppu/bin/../lib/gcc/powerpc64-ps3-elf/4.5.2/../../../../powerpc64-ps3-elf/lib\libc.a(lib_a-strtoll_r.o)
 .debug_loc     0x000000000000bd64      0x4ef c:/psdk3v2/ps3dev/ppu/bin/../lib/gcc/powerpc64-ps3-elf/4.5.2/../../../../powerpc64-ps3-elf/lib\libc.a(lib_a-strtoul.o)
 .debug_loc     0x000000000000c253      0x3ed c:/psdk3v2/ps3dev/ppu/bin/../lib/gcc/powerpc64-ps3-elf/4.5.2/../../../../powerpc64-ps3-elf/lib\libc.a(lib_a-strtoull_r.o)
 .debug_loc     0x000000000000c640     0x2233 c:/psdk3v2/ps3dev/ppu/bin/../lib/gcc/powerpc64-ps3-elf/4.5.2/../../../../powerpc64-ps3-elf/lib\libc.a(lib_a-svfiscanf.o)
 .debug_loc     0x000000000000e873     0x3930 c:/psdk3v2/ps3dev/ppu/bin/../lib/gcc/powerpc64-ps3-elf/4.5.2/../../../../powerpc64-ps3-elf/lib\libc.a(lib_a-svfprintf.o)
 .debug_loc     0x00000000000121a3      0x443 c:/psdk3v2/ps3dev/ppu/bin/../lib/gcc/powerpc64-ps3-elf/4.5.2/../../../../powerpc64-ps3-elf/lib\libc.a(lib_a-ungetc.o)
 .debug_loc     0x00000000000125e6     0x35a1 c:/psdk3v2/ps3dev/ppu/bin/../lib/gcc/powerpc64-ps3-elf/4.5.2/../../../../powerpc64-ps3-elf/lib\libc.a(lib_a-dtoa.o)
 .debug_loc     0x0000000000015b87      0x235 c:/psdk3v2/ps3dev/ppu/bin/../lib/gcc/powerpc64-ps3-elf/4.5.2/../../../../powerpc64-ps3-elf/lib\libc.a(lib_a-fclose.o)
 .debug_loc     0x0000000000015dbc      0x490 c:/psdk3v2/ps3dev/ppu/bin/../lib/gcc/powerpc64-ps3-elf/4.5.2/../../../../powerpc64-ps3-elf/lib\libc.a(lib_a-fflush.o)
 .debug_loc     0x000000000001624c     0x175d c:/psdk3v2/ps3dev/ppu/bin/../lib/gcc/powerpc64-ps3-elf/4.5.2/../../../../powerpc64-ps3-elf/lib\libc.a(lib_a-gdtoa-gethex.o)
 .debug_loc     0x00000000000179a9      0x73b c:/psdk3v2/ps3dev/ppu/bin/../lib/gcc/powerpc64-ps3-elf/4.5.2/../../../../powerpc64-ps3-elf/lib\libc.a(lib_a-gdtoa-hexnan.o)
 .debug_loc     0x00000000000180e4      0x26a c:/psdk3v2/ps3dev/ppu/bin/../lib/gcc/powerpc64-ps3-elf/4.5.2/../../../../powerpc64-ps3-elf/lib\libc.a(lib_a-memchr.o)
 .debug_loc     0x000000000001834e      0x24d c:/psdk3v2/ps3dev/ppu/bin/../lib/gcc/powerpc64-ps3-elf/4.5.2/../../../../powerpc64-ps3-elf/lib\libc.a(lib_a-memcpy.o)
 .debug_loc     0x000000000001859b     0x2b85 c:/psdk3v2/ps3dev/ppu/bin/../lib/gcc/powerpc64-ps3-elf/4.5.2/../../../../powerpc64-ps3-elf/lib\libc.a(lib_a-mprec.o)
 .debug_loc     0x000000000001b120     0x12d3 c:/psdk3v2/ps3dev/ppu/bin/../lib/gcc/powerpc64-ps3-elf/4.5.2/../../../../powerpc64-ps3-elf/lib\libc.a(lib_a-reallocr.o)
 .debug_loc     0x000000000001c3f3     0x1f86 c:/psdk3v2/ps3dev/ppu/bin/../lib/gcc/powerpc64-ps3-elf/4.5.2/../../../../powerpc64-ps3-elf/lib\libc.a(lib_a-svfiprintf.o)
 .debug_loc     0x000000000001e379      0x320 c:/psdk3v2/ps3dev/ppu/bin/../lib/gcc/powerpc64-ps3-elf/4.5.2/../../../../powerpc64-ps3-elf/lib\libc.a(lib_a-callocr.o)
 .debug_loc     0x000000000001e699      0x2c4 c:/psdk3v2/ps3dev/ppu/bin/../lib/gcc/powerpc64-ps3-elf/4.5.2/../../../../powerpc64-ps3-elf/lib\libc.a(lib_a-memmove.o)
 .debug_loc     0x000000000001e95d       0xe1 c:/psdk3v2/ps3dev/ppu/bin/../lib/gcc/powerpc64-ps3-elf/4.5.2/../../../../powerpc64-ps3-elf/lib\libsysbase.a(close.o)
 .debug_loc     0x000000000001ea3e      0x14d c:/psdk3v2/ps3dev/ppu/bin/../lib/gcc/powerpc64-ps3-elf/4.5.2/../../../../powerpc64-ps3-elf/lib\libsysbase.a(lseek.o)
 .debug_loc     0x000000000001eb8b      0x14d c:/psdk3v2/ps3dev/ppu/bin/../lib/gcc/powerpc64-ps3-elf/4.5.2/../../../../powerpc64-ps3-elf/lib\libsysbase.a(read.o)
 .debug_loc     0x000000000001ecd8      0x14d c:/psdk3v2/ps3dev/ppu/bin/../lib/gcc/powerpc64-ps3-elf/4.5.2/../../../../powerpc64-ps3-elf/lib\libsysbase.a(write.o)

.debug_macinfo
 *(.debug_macinfo)

.debug_weaknames
 *(.debug_weaknames)

.debug_funcnames
 *(.debug_funcnames)

.debug_typenames
 *(.debug_typenames)

.debug_varnames
 *(.debug_varnames)

.debug_pubtypes
                0x0000000000000000     0x48ce
 *(.debug_pubtypes)
 .debug_pubtypes
                0x0000000000000000      0x2d1 c:/psdk3v2/ps3dev/ppu/bin/../lib/gcc/powerpc64-ps3-elf/4.5.2/../../../../powerpc64-ps3-elf/lib\libsysbase.a(syscalls.o)
 .debug_pubtypes
                0x00000000000002d1      0x124 c:/psdk3v2/ps3dev/ppu/bin/../lib/gcc/powerpc64-ps3-elf/4.5.2/../../../../powerpc64-ps3-elf/lib\libc.a(lib_a-exit.o)
 .debug_pubtypes
                0x00000000000003f5      0x124 c:/psdk3v2/ps3dev/ppu/bin/../lib/gcc/powerpc64-ps3-elf/4.5.2/../../../../powerpc64-ps3-elf/lib\libc.a(lib_a-impure.o)
 .debug_pubtypes
                0x0000000000000519       0x1d c:/psdk3v2/ps3dev/ppu/bin/../lib/gcc/powerpc64-ps3-elf/4.5.2/../../../../powerpc64-ps3-elf/lib\libc.a(lib_a-malloc.o)
 .debug_pubtypes
                0x0000000000000536      0x167 c:/psdk3v2/ps3dev/ppu/bin/../lib/gcc/powerpc64-ps3-elf/4.5.2/../../../../powerpc64-ps3-elf/lib\libc.a(lib_a-mallocr.o)
 .debug_pubtypes
                0x000000000000069d      0x124 c:/psdk3v2/ps3dev/ppu/bin/../lib/gcc/powerpc64-ps3-elf/4.5.2/../../../../powerpc64-ps3-elf/lib\libc.a(lib_a-mlock.o)
 .debug_pubtypes
                0x00000000000007c1       0x12 c:/psdk3v2/ps3dev/ppu/bin/../lib/gcc/powerpc64-ps3-elf/4.5.2/../../../../powerpc64-ps3-elf/lib\libc.a(lib_a-strcpy.o)
 .debug_pubtypes
                0x00000000000007d3       0x1d c:/psdk3v2/ps3dev/ppu/bin/../lib/gcc/powerpc64-ps3-elf/4.5.2/../../../../powerpc64-ps3-elf/lib\libc.a(lib_a-strlen.o)
 .debug_pubtypes
                0x00000000000007f0       0x1d c:/psdk3v2/ps3dev/ppu/bin/../lib/gcc/powerpc64-ps3-elf/4.5.2/../../../../powerpc64-ps3-elf/lib\libc.a(lib_a-strncmp.o)
 .debug_pubtypes
                0x000000000000080d      0x124 c:/psdk3v2/ps3dev/ppu/bin/../lib/gcc/powerpc64-ps3-elf/4.5.2/../../../../powerpc64-ps3-elf/lib\libc.a(lib_a-__call_atexit.o)
 .debug_pubtypes
                0x0000000000000931      0x167 c:/psdk3v2/ps3dev/ppu/bin/../lib/gcc/powerpc64-ps3-elf/4.5.2/../../../../powerpc64-ps3-elf/lib\libc.a(lib_a-freer.o)
 .debug_pubtypes
                0x0000000000000a98      0x124 c:/psdk3v2/ps3dev/ppu/bin/../lib/gcc/powerpc64-ps3-elf/4.5.2/../../../../powerpc64-ps3-elf/lib\libc.a(lib_a-getreent.o)
 .debug_pubtypes
                0x0000000000000bbc       0x7c c:/psdk3v2/ps3dev/ppu/bin/../lib/gcc/powerpc64-ps3-elf/4.5.2/../../../../powerpc64-ps3-elf/lib\libc.a(lib_a-lock_recursive.o)
 .debug_pubtypes
                0x0000000000000c38       0x1d c:/psdk3v2/ps3dev/ppu/bin/../lib/gcc/powerpc64-ps3-elf/4.5.2/../../../../powerpc64-ps3-elf/lib\libc.a(lib_a-memset.o)
 .debug_pubtypes
                0x0000000000000c55      0x137 c:/psdk3v2/ps3dev/ppu/bin/../lib/gcc/powerpc64-ps3-elf/4.5.2/../../../../powerpc64-ps3-elf/lib\libc.a(lib_a-__atexit.o)
 .debug_pubtypes
                0x0000000000000d8c       0x7c c:/psdk3v2/ps3dev/ppu/bin/../lib/gcc/powerpc64-ps3-elf/4.5.2/../../../../powerpc64-ps3-elf/lib\libc.a(lib_a-lock_internal.o)
 .debug_pubtypes
                0x0000000000000e08       0x12 c:/psdk3v2/ps3dev/ppu/bin/../lib/gcc/powerpc64-ps3-elf/4.5.2/../../../../powerpc64-ps3-elf/lib\libc.a(lib_a-abort.o)
 .debug_pubtypes
                0x0000000000000e1a      0x136 c:/psdk3v2/ps3dev/ppu/bin/../lib/gcc/powerpc64-ps3-elf/4.5.2/../../../../powerpc64-ps3-elf/lib\libc.a(lib_a-signal.o)
 .debug_pubtypes
                0x0000000000000f50      0x2d1 c:/psdk3v2/ps3dev/ppu/bin/../lib/gcc/powerpc64-ps3-elf/4.5.2/../../../../powerpc64-ps3-elf/lib\libsysbase.a(sbrk.o)
 .debug_pubtypes
                0x0000000000001221      0x2d1 c:/psdk3v2/ps3dev/ppu/bin/../lib/gcc/powerpc64-ps3-elf/4.5.2/../../../../powerpc64-ps3-elf/lib\libsysbase.a(_exit.o)
 .debug_pubtypes
                0x00000000000014f2      0x2d1 c:/psdk3v2/ps3dev/ppu/bin/../lib/gcc/powerpc64-ps3-elf/4.5.2/../../../../powerpc64-ps3-elf/lib\libsysbase.a(lock.o)
 .debug_pubtypes
                0x00000000000017c3      0x2d1 c:/psdk3v2/ps3dev/ppu/bin/../lib/gcc/powerpc64-ps3-elf/4.5.2/../../../../powerpc64-ps3-elf/lib\libsysbase.a(getpid.o)
 .debug_pubtypes
                0x0000000000001a94      0x124 c:/psdk3v2/ps3dev/ppu/bin/../lib/gcc/powerpc64-ps3-elf/4.5.2/../../../../powerpc64-ps3-elf/lib\libsysbase.a(kill.o)
 .debug_pubtypes
                0x0000000000001bb8       0x12 c:/psdk3v2/ps3dev/ppu/bin/../lib/gcc/powerpc64-ps3-elf/4.5.2/../../../../powerpc64-ps3-elf/lib\libc.a(lib_a-errno.o)
 .debug_pubtypes
                0x0000000000001bca      0x14c c:/psdk3v2/ps3dev/ppu/bin/../lib/gcc/powerpc64-ps3-elf/4.5.2/../../../../powerpc64-ps3-elf/lib\libc.a(lib_a-sscanf.o)
 .debug_pubtypes
                0x0000000000001d16      0x138 c:/psdk3v2/ps3dev/ppu/bin/../lib/gcc/powerpc64-ps3-elf/4.5.2/../../../../powerpc64-ps3-elf/lib\libc.a(lib_a-stdio.o)
 .debug_pubtypes
                0x0000000000001e4e       0x1d c:/psdk3v2/ps3dev/ppu/bin/../lib/gcc/powerpc64-ps3-elf/4.5.2/../../../../powerpc64-ps3-elf/lib\libc.a(lib_a-strncpy.o)
 .debug_pubtypes
                0x0000000000001e6b      0x18f c:/psdk3v2/ps3dev/ppu/bin/../lib/gcc/powerpc64-ps3-elf/4.5.2/../../../../powerpc64-ps3-elf/lib\libc.a(lib_a-svfscanf.o)
 .debug_pubtypes
                0x0000000000001ffa      0x12d c:/psdk3v2/ps3dev/ppu/bin/../lib/gcc/powerpc64-ps3-elf/4.5.2/../../../../powerpc64-ps3-elf/lib\libc.a(lib_a-findfp.o)
 .debug_pubtypes
                0x0000000000002127      0x12d c:/psdk3v2/ps3dev/ppu/bin/../lib/gcc/powerpc64-ps3-elf/4.5.2/../../../../powerpc64-ps3-elf/lib\libc.a(lib_a-fwalk.o)
 .debug_pubtypes
                0x0000000000002254       0x1d c:/psdk3v2/ps3dev/ppu/bin/../lib/gcc/powerpc64-ps3-elf/4.5.2/../../../../powerpc64-ps3-elf/lib\libc.a(lib_a-iswspace.o)
 .debug_pubtypes
                0x0000000000002271      0x12e c:/psdk3v2/ps3dev/ppu/bin/../lib/gcc/powerpc64-ps3-elf/4.5.2/../../../../powerpc64-ps3-elf/lib\libc.a(lib_a-locale.o)
 .debug_pubtypes
                0x000000000000239f      0x149 c:/psdk3v2/ps3dev/ppu/bin/../lib/gcc/powerpc64-ps3-elf/4.5.2/../../../../powerpc64-ps3-elf/lib\libc.a(lib_a-mbrtowc.o)
 .debug_pubtypes
                0x00000000000024e8      0x149 c:/psdk3v2/ps3dev/ppu/bin/../lib/gcc/powerpc64-ps3-elf/4.5.2/../../../../powerpc64-ps3-elf/lib\libc.a(lib_a-mbtowc_r.o)
 .debug_pubtypes
                0x0000000000002631       0x3c c:/psdk3v2/ps3dev/ppu/bin/../lib/gcc/powerpc64-ps3-elf/4.5.2/../../../../powerpc64-ps3-elf/lib\libc.a(lib_a-s_fpclassify.o)
 .debug_pubtypes
                0x000000000000266d       0x1d c:/psdk3v2/ps3dev/ppu/bin/../lib/gcc/powerpc64-ps3-elf/4.5.2/../../../../powerpc64-ps3-elf/lib\libc.a(lib_a-sccl.o)
 .debug_pubtypes
                0x000000000000268a       0x12 c:/psdk3v2/ps3dev/ppu/bin/../lib/gcc/powerpc64-ps3-elf/4.5.2/../../../../powerpc64-ps3-elf/lib\libc.a(lib_a-sf_nan.o)
 .debug_pubtypes
                0x000000000000269c      0x14c c:/psdk3v2/ps3dev/ppu/bin/../lib/gcc/powerpc64-ps3-elf/4.5.2/../../../../powerpc64-ps3-elf/lib\libc.a(lib_a-sprintf.o)
 .debug_pubtypes
                0x00000000000027e8       0x12 c:/psdk3v2/ps3dev/ppu/bin/../lib/gcc/powerpc64-ps3-elf/4.5.2/../../../../powerpc64-ps3-elf/lib\libc.a(lib_a-strcmp.o)
 .debug_pubtypes
                0x00000000000027fa      0x16c c:/psdk3v2/ps3dev/ppu/bin/../lib/gcc/powerpc64-ps3-elf/4.5.2/../../../../powerpc64-ps3-elf/lib\libc.a(lib_a-strtod.o)
 .debug_pubtypes
                0x0000000000002966      0x124 c:/psdk3v2/ps3dev/ppu/bin/../lib/gcc/powerpc64-ps3-elf/4.5.2/../../../../powerpc64-ps3-elf/lib\libc.a(lib_a-strtol.o)
 .debug_pubtypes
                0x0000000000002a8a      0x124 c:/psdk3v2/ps3dev/ppu/bin/../lib/gcc/powerpc64-ps3-elf/4.5.2/../../../../powerpc64-ps3-elf/lib\libc.a(lib_a-strtoll_r.o)
 .debug_pubtypes
                0x0000000000002bae      0x124 c:/psdk3v2/ps3dev/ppu/bin/../lib/gcc/powerpc64-ps3-elf/4.5.2/../../../../powerpc64-ps3-elf/lib\libc.a(lib_a-strtoul.o)
 .debug_pubtypes
                0x0000000000002cd2      0x124 c:/psdk3v2/ps3dev/ppu/bin/../lib/gcc/powerpc64-ps3-elf/4.5.2/../../../../powerpc64-ps3-elf/lib\libc.a(lib_a-strtoull_r.o)
 .debug_pubtypes
                0x0000000000002df6      0x18f c:/psdk3v2/ps3dev/ppu/bin/../lib/gcc/powerpc64-ps3-elf/4.5.2/../../../../powerpc64-ps3-elf/lib\libc.a(lib_a-svfiscanf.o)
 .debug_pubtypes
                0x0000000000002f85      0x1b2 c:/psdk3v2/ps3dev/ppu/bin/../lib/gcc/powerpc64-ps3-elf/4.5.2/../../../../powerpc64-ps3-elf/lib\libc.a(lib_a-svfprintf.o)
 .debug_pubtypes
                0x0000000000003137      0x138 c:/psdk3v2/ps3dev/ppu/bin/../lib/gcc/powerpc64-ps3-elf/4.5.2/../../../../powerpc64-ps3-elf/lib\libc.a(lib_a-ungetc.o)
 .debug_pubtypes
                0x000000000000326f      0x150 c:/psdk3v2/ps3dev/ppu/bin/../lib/gcc/powerpc64-ps3-elf/4.5.2/../../../../powerpc64-ps3-elf/lib\libc.a(lib_a-dtoa.o)
 .debug_pubtypes
                0x00000000000033bf      0x12d c:/psdk3v2/ps3dev/ppu/bin/../lib/gcc/powerpc64-ps3-elf/4.5.2/../../../../powerpc64-ps3-elf/lib\libc.a(lib_a-fclose.o)
 .debug_pubtypes
                0x00000000000034ec      0x12d c:/psdk3v2/ps3dev/ppu/bin/../lib/gcc/powerpc64-ps3-elf/4.5.2/../../../../powerpc64-ps3-elf/lib\libc.a(lib_a-fflush.o)
 .debug_pubtypes
                0x0000000000003619      0x162 c:/psdk3v2/ps3dev/ppu/bin/../lib/gcc/powerpc64-ps3-elf/4.5.2/../../../../powerpc64-ps3-elf/lib\libc.a(lib_a-gdtoa-gethex.o)
 .debug_pubtypes
                0x000000000000377b       0x2e c:/psdk3v2/ps3dev/ppu/bin/../lib/gcc/powerpc64-ps3-elf/4.5.2/../../../../powerpc64-ps3-elf/lib\libc.a(lib_a-gdtoa-hexnan.o)
 .debug_pubtypes
                0x00000000000037a9       0x1d c:/psdk3v2/ps3dev/ppu/bin/../lib/gcc/powerpc64-ps3-elf/4.5.2/../../../../powerpc64-ps3-elf/lib\libc.a(lib_a-memchr.o)
 .debug_pubtypes
                0x00000000000037c6       0x1d c:/psdk3v2/ps3dev/ppu/bin/../lib/gcc/powerpc64-ps3-elf/4.5.2/../../../../powerpc64-ps3-elf/lib\libc.a(lib_a-memcpy.o)
 .debug_pubtypes
                0x00000000000037e3      0x150 c:/psdk3v2/ps3dev/ppu/bin/../lib/gcc/powerpc64-ps3-elf/4.5.2/../../../../powerpc64-ps3-elf/lib\libc.a(lib_a-mprec.o)
 .debug_pubtypes
                0x0000000000003933      0x15a c:/psdk3v2/ps3dev/ppu/bin/../lib/gcc/powerpc64-ps3-elf/4.5.2/../../../../powerpc64-ps3-elf/lib\libc.a(lib_a-reallocr.o)
 .debug_pubtypes
                0x0000000000003a8d      0x192 c:/psdk3v2/ps3dev/ppu/bin/../lib/gcc/powerpc64-ps3-elf/4.5.2/../../../../powerpc64-ps3-elf/lib\libc.a(lib_a-svfiprintf.o)
 .debug_pubtypes
                0x0000000000003c1f      0x14e c:/psdk3v2/ps3dev/ppu/bin/../lib/gcc/powerpc64-ps3-elf/4.5.2/../../../../powerpc64-ps3-elf/lib\libc.a(lib_a-callocr.o)
 .debug_pubtypes
                0x0000000000003d6d       0x1d c:/psdk3v2/ps3dev/ppu/bin/../lib/gcc/powerpc64-ps3-elf/4.5.2/../../../../powerpc64-ps3-elf/lib\libc.a(lib_a-memmove.o)
 .debug_pubtypes
                0x0000000000003d8a      0x2d1 c:/psdk3v2/ps3dev/ppu/bin/../lib/gcc/powerpc64-ps3-elf/4.5.2/../../../../powerpc64-ps3-elf/lib\libsysbase.a(close.o)
 .debug_pubtypes
                0x000000000000405b      0x2d1 c:/psdk3v2/ps3dev/ppu/bin/../lib/gcc/powerpc64-ps3-elf/4.5.2/../../../../powerpc64-ps3-elf/lib\libsysbase.a(lseek.o)
 .debug_pubtypes
                0x000000000000432c      0x2d1 c:/psdk3v2/ps3dev/ppu/bin/../lib/gcc/powerpc64-ps3-elf/4.5.2/../../../../powerpc64-ps3-elf/lib\libsysbase.a(read.o)
 .debug_pubtypes
                0x00000000000045fd      0x2d1 c:/psdk3v2/ps3dev/ppu/bin/../lib/gcc/powerpc64-ps3-elf/4.5.2/../../../../powerpc64-ps3-elf/lib\libsysbase.a(write.o)

.debug_ranges   0x0000000000000000     0x1d50
 *(.debug_ranges)
 .debug_ranges  0x0000000000000000       0x20 c:/psdk3v2/ps3dev/ppu/bin/../lib/gcc/powerpc64-ps3-elf/4.5.2/../../../../powerpc64-ps3-elf/lib\libc.a(lib_a-exit.o)
 .debug_ranges  0x0000000000000020       0x30 c:/psdk3v2/ps3dev/ppu/bin/../lib/gcc/powerpc64-ps3-elf/4.5.2/../../../../powerpc64-ps3-elf/lib\libc.a(lib_a-malloc.o)
 .debug_ranges  0x0000000000000050       0xc0 c:/psdk3v2/ps3dev/ppu/bin/../lib/gcc/powerpc64-ps3-elf/4.5.2/../../../../powerpc64-ps3-elf/lib\libc.a(lib_a-mallocr.o)
 .debug_ranges  0x0000000000000110       0x30 c:/psdk3v2/ps3dev/ppu/bin/../lib/gcc/powerpc64-ps3-elf/4.5.2/../../../../powerpc64-ps3-elf/lib\libc.a(lib_a-mlock.o)
 .debug_ranges  0x0000000000000140       0x20 c:/psdk3v2/ps3dev/ppu/bin/../lib/gcc/powerpc64-ps3-elf/4.5.2/../../../../powerpc64-ps3-elf/lib\libc.a(lib_a-strcpy.o)
 .debug_ranges  0x0000000000000160       0x20 c:/psdk3v2/ps3dev/ppu/bin/../lib/gcc/powerpc64-ps3-elf/4.5.2/../../../../powerpc64-ps3-elf/lib\libc.a(lib_a-strlen.o)
 .debug_ranges  0x0000000000000180       0x20 c:/psdk3v2/ps3dev/ppu/bin/../lib/gcc/powerpc64-ps3-elf/4.5.2/../../../../powerpc64-ps3-elf/lib\libc.a(lib_a-strncmp.o)
 .debug_ranges  0x00000000000001a0       0x70 c:/psdk3v2/ps3dev/ppu/bin/../lib/gcc/powerpc64-ps3-elf/4.5.2/../../../../powerpc64-ps3-elf/lib\libc.a(lib_a-__call_atexit.o)
 .debug_ranges  0x0000000000000210       0x30 c:/psdk3v2/ps3dev/ppu/bin/../lib/gcc/powerpc64-ps3-elf/4.5.2/../../../../powerpc64-ps3-elf/lib\libc.a(lib_a-freer.o)
 .debug_ranges  0x0000000000000240       0x70 c:/psdk3v2/ps3dev/ppu/bin/../lib/gcc/powerpc64-ps3-elf/4.5.2/../../../../powerpc64-ps3-elf/lib\libc.a(lib_a-getreent.o)
 .debug_ranges  0x00000000000002b0       0x60 c:/psdk3v2/ps3dev/ppu/bin/../lib/gcc/powerpc64-ps3-elf/4.5.2/../../../../powerpc64-ps3-elf/lib\libc.a(lib_a-lock_recursive.o)
 .debug_ranges  0x0000000000000310       0x20 c:/psdk3v2/ps3dev/ppu/bin/../lib/gcc/powerpc64-ps3-elf/4.5.2/../../../../powerpc64-ps3-elf/lib\libc.a(lib_a-memset.o)
 .debug_ranges  0x0000000000000330       0x20 c:/psdk3v2/ps3dev/ppu/bin/../lib/gcc/powerpc64-ps3-elf/4.5.2/../../../../powerpc64-ps3-elf/lib\libc.a(lib_a-__atexit.o)
 .debug_ranges  0x0000000000000350       0x30 c:/psdk3v2/ps3dev/ppu/bin/../lib/gcc/powerpc64-ps3-elf/4.5.2/../../../../powerpc64-ps3-elf/lib\libc.a(lib_a-lock_internal.o)
 .debug_ranges  0x0000000000000380       0x20 c:/psdk3v2/ps3dev/ppu/bin/../lib/gcc/powerpc64-ps3-elf/4.5.2/../../../../powerpc64-ps3-elf/lib\libc.a(lib_a-abort.o)
 .debug_ranges  0x00000000000003a0       0x90 c:/psdk3v2/ps3dev/ppu/bin/../lib/gcc/powerpc64-ps3-elf/4.5.2/../../../../powerpc64-ps3-elf/lib\libc.a(lib_a-signal.o)
 .debug_ranges  0x0000000000000430       0x20 c:/psdk3v2/ps3dev/ppu/bin/../lib/gcc/powerpc64-ps3-elf/4.5.2/../../../../powerpc64-ps3-elf/lib\libsysbase.a(sbrk.o)
 .debug_ranges  0x0000000000000450       0x20 c:/psdk3v2/ps3dev/ppu/bin/../lib/gcc/powerpc64-ps3-elf/4.5.2/../../../../powerpc64-ps3-elf/lib\libsysbase.a(_exit.o)
 .debug_ranges  0x0000000000000470       0x60 c:/psdk3v2/ps3dev/ppu/bin/../lib/gcc/powerpc64-ps3-elf/4.5.2/../../../../powerpc64-ps3-elf/lib\libsysbase.a(lock.o)
 .debug_ranges  0x00000000000004d0       0x20 c:/psdk3v2/ps3dev/ppu/bin/../lib/gcc/powerpc64-ps3-elf/4.5.2/../../../../powerpc64-ps3-elf/lib\libsysbase.a(getpid.o)
 .debug_ranges  0x00000000000004f0       0x20 c:/psdk3v2/ps3dev/ppu/bin/../lib/gcc/powerpc64-ps3-elf/4.5.2/../../../../powerpc64-ps3-elf/lib\libsysbase.a(kill.o)
 .debug_ranges  0x0000000000000510       0x20 c:/psdk3v2/ps3dev/ppu/bin/../lib/gcc/powerpc64-ps3-elf/4.5.2/../../../../powerpc64-ps3-elf/lib\libc.a(lib_a-errno.o)
 .debug_ranges  0x0000000000000530       0x30 c:/psdk3v2/ps3dev/ppu/bin/../lib/gcc/powerpc64-ps3-elf/4.5.2/../../../../powerpc64-ps3-elf/lib\libc.a(lib_a-sscanf.o)
 .debug_ranges  0x0000000000000560       0x60 c:/psdk3v2/ps3dev/ppu/bin/../lib/gcc/powerpc64-ps3-elf/4.5.2/../../../../powerpc64-ps3-elf/lib\libc.a(lib_a-stdio.o)
 .debug_ranges  0x00000000000005c0       0x20 c:/psdk3v2/ps3dev/ppu/bin/../lib/gcc/powerpc64-ps3-elf/4.5.2/../../../../powerpc64-ps3-elf/lib\libc.a(lib_a-strncpy.o)
 .debug_ranges  0x00000000000005e0      0x2e0 c:/psdk3v2/ps3dev/ppu/bin/../lib/gcc/powerpc64-ps3-elf/4.5.2/../../../../powerpc64-ps3-elf/lib\libc.a(lib_a-svfscanf.o)
 .debug_ranges  0x00000000000008c0      0x130 c:/psdk3v2/ps3dev/ppu/bin/../lib/gcc/powerpc64-ps3-elf/4.5.2/../../../../powerpc64-ps3-elf/lib\libc.a(lib_a-findfp.o)
 .debug_ranges  0x00000000000009f0       0xf0 c:/psdk3v2/ps3dev/ppu/bin/../lib/gcc/powerpc64-ps3-elf/4.5.2/../../../../powerpc64-ps3-elf/lib\libc.a(lib_a-fwalk.o)
 .debug_ranges  0x0000000000000ae0       0x20 c:/psdk3v2/ps3dev/ppu/bin/../lib/gcc/powerpc64-ps3-elf/4.5.2/../../../../powerpc64-ps3-elf/lib\libc.a(lib_a-iswspace.o)
 .debug_ranges  0x0000000000000b00       0x90 c:/psdk3v2/ps3dev/ppu/bin/../lib/gcc/powerpc64-ps3-elf/4.5.2/../../../../powerpc64-ps3-elf/lib\libc.a(lib_a-locale.o)
 .debug_ranges  0x0000000000000b90       0x30 c:/psdk3v2/ps3dev/ppu/bin/../lib/gcc/powerpc64-ps3-elf/4.5.2/../../../../powerpc64-ps3-elf/lib\libc.a(lib_a-mbrtowc.o)
 .debug_ranges  0x0000000000000bc0       0x30 c:/psdk3v2/ps3dev/ppu/bin/../lib/gcc/powerpc64-ps3-elf/4.5.2/../../../../powerpc64-ps3-elf/lib\libc.a(lib_a-mbtowc_r.o)
 .debug_ranges  0x0000000000000bf0       0x50 c:/psdk3v2/ps3dev/ppu/bin/../lib/gcc/powerpc64-ps3-elf/4.5.2/../../../../powerpc64-ps3-elf/lib\libc.a(lib_a-s_fpclassify.o)
 .debug_ranges  0x0000000000000c40       0x20 c:/psdk3v2/ps3dev/ppu/bin/../lib/gcc/powerpc64-ps3-elf/4.5.2/../../../../powerpc64-ps3-elf/lib\libc.a(lib_a-sccl.o)
 .debug_ranges  0x0000000000000c60       0x20 c:/psdk3v2/ps3dev/ppu/bin/../lib/gcc/powerpc64-ps3-elf/4.5.2/../../../../powerpc64-ps3-elf/lib\libc.a(lib_a-sf_nan.o)
 .debug_ranges  0x0000000000000c80       0x30 c:/psdk3v2/ps3dev/ppu/bin/../lib/gcc/powerpc64-ps3-elf/4.5.2/../../../../powerpc64-ps3-elf/lib\libc.a(lib_a-sprintf.o)
 .debug_ranges  0x0000000000000cb0       0x20 c:/psdk3v2/ps3dev/ppu/bin/../lib/gcc/powerpc64-ps3-elf/4.5.2/../../../../powerpc64-ps3-elf/lib\libc.a(lib_a-strcmp.o)
 .debug_ranges  0x0000000000000cd0      0x110 c:/psdk3v2/ps3dev/ppu/bin/../lib/gcc/powerpc64-ps3-elf/4.5.2/../../../../powerpc64-ps3-elf/lib\libc.a(lib_a-strtod.o)
 .debug_ranges  0x0000000000000de0       0x30 c:/psdk3v2/ps3dev/ppu/bin/../lib/gcc/powerpc64-ps3-elf/4.5.2/../../../../powerpc64-ps3-elf/lib\libc.a(lib_a-strtol.o)
 .debug_ranges  0x0000000000000e10       0x20 c:/psdk3v2/ps3dev/ppu/bin/../lib/gcc/powerpc64-ps3-elf/4.5.2/../../../../powerpc64-ps3-elf/lib\libc.a(lib_a-strtoll_r.o)
 .debug_ranges  0x0000000000000e30       0x30 c:/psdk3v2/ps3dev/ppu/bin/../lib/gcc/powerpc64-ps3-elf/4.5.2/../../../../powerpc64-ps3-elf/lib\libc.a(lib_a-strtoul.o)
 .debug_ranges  0x0000000000000e60       0x20 c:/psdk3v2/ps3dev/ppu/bin/../lib/gcc/powerpc64-ps3-elf/4.5.2/../../../../powerpc64-ps3-elf/lib\libc.a(lib_a-strtoull_r.o)
 .debug_ranges  0x0000000000000e80      0x250 c:/psdk3v2/ps3dev/ppu/bin/../lib/gcc/powerpc64-ps3-elf/4.5.2/../../../../powerpc64-ps3-elf/lib\libc.a(lib_a-svfiscanf.o)
 .debug_ranges  0x00000000000010d0      0x450 c:/psdk3v2/ps3dev/ppu/bin/../lib/gcc/powerpc64-ps3-elf/4.5.2/../../../../powerpc64-ps3-elf/lib\libc.a(lib_a-svfprintf.o)
 .debug_ranges  0x0000000000001520       0x40 c:/psdk3v2/ps3dev/ppu/bin/../lib/gcc/powerpc64-ps3-elf/4.5.2/../../../../powerpc64-ps3-elf/lib\libc.a(lib_a-ungetc.o)
 .debug_ranges  0x0000000000001560       0x30 c:/psdk3v2/ps3dev/ppu/bin/../lib/gcc/powerpc64-ps3-elf/4.5.2/../../../../powerpc64-ps3-elf/lib\libc.a(lib_a-dtoa.o)
 .debug_ranges  0x0000000000001590       0x30 c:/psdk3v2/ps3dev/ppu/bin/../lib/gcc/powerpc64-ps3-elf/4.5.2/../../../../powerpc64-ps3-elf/lib\libc.a(lib_a-fclose.o)
 .debug_ranges  0x00000000000015c0       0xa0 c:/psdk3v2/ps3dev/ppu/bin/../lib/gcc/powerpc64-ps3-elf/4.5.2/../../../../powerpc64-ps3-elf/lib\libc.a(lib_a-fflush.o)
 .debug_ranges  0x0000000000001660      0x120 c:/psdk3v2/ps3dev/ppu/bin/../lib/gcc/powerpc64-ps3-elf/4.5.2/../../../../powerpc64-ps3-elf/lib\libc.a(lib_a-gdtoa-gethex.o)
 .debug_ranges  0x0000000000001780       0x20 c:/psdk3v2/ps3dev/ppu/bin/../lib/gcc/powerpc64-ps3-elf/4.5.2/../../../../powerpc64-ps3-elf/lib\libc.a(lib_a-gdtoa-hexnan.o)
 .debug_ranges  0x00000000000017a0       0x20 c:/psdk3v2/ps3dev/ppu/bin/../lib/gcc/powerpc64-ps3-elf/4.5.2/../../../../powerpc64-ps3-elf/lib\libc.a(lib_a-memchr.o)
 .debug_ranges  0x00000000000017c0       0x20 c:/psdk3v2/ps3dev/ppu/bin/../lib/gcc/powerpc64-ps3-elf/4.5.2/../../../../powerpc64-ps3-elf/lib\libc.a(lib_a-memcpy.o)
 .debug_ranges  0x00000000000017e0      0x1f0 c:/psdk3v2/ps3dev/ppu/bin/../lib/gcc/powerpc64-ps3-elf/4.5.2/../../../../powerpc64-ps3-elf/lib\libc.a(lib_a-mprec.o)
 .debug_ranges  0x00000000000019d0      0x1d0 c:/psdk3v2/ps3dev/ppu/bin/../lib/gcc/powerpc64-ps3-elf/4.5.2/../../../../powerpc64-ps3-elf/lib\libc.a(lib_a-reallocr.o)
 .debug_ranges  0x0000000000001ba0       0xc0 c:/psdk3v2/ps3dev/ppu/bin/../lib/gcc/powerpc64-ps3-elf/4.5.2/../../../../powerpc64-ps3-elf/lib\libc.a(lib_a-svfiprintf.o)
 .debug_ranges  0x0000000000001c60       0x50 c:/psdk3v2/ps3dev/ppu/bin/../lib/gcc/powerpc64-ps3-elf/4.5.2/../../../../powerpc64-ps3-elf/lib\libc.a(lib_a-callocr.o)
 .debug_ranges  0x0000000000001cb0       0x20 c:/psdk3v2/ps3dev/ppu/bin/../lib/gcc/powerpc64-ps3-elf/4.5.2/../../../../powerpc64-ps3-elf/lib\libc.a(lib_a-memmove.o)
 .debug_ranges  0x0000000000001cd0       0x20 c:/psdk3v2/ps3dev/ppu/bin/../lib/gcc/powerpc64-ps3-elf/4.5.2/../../../../powerpc64-ps3-elf/lib\libsysbase.a(close.o)
 .debug_ranges  0x0000000000001cf0       0x20 c:/psdk3v2/ps3dev/ppu/bin/../lib/gcc/powerpc64-ps3-elf/4.5.2/../../../../powerpc64-ps3-elf/lib\libsysbase.a(lseek.o)
 .debug_ranges  0x0000000000001d10       0x20 c:/psdk3v2/ps3dev/ppu/bin/../lib/gcc/powerpc64-ps3-elf/4.5.2/../../../../powerpc64-ps3-elf/lib\libsysbase.a(read.o)
 .debug_ranges  0x0000000000001d30       0x20 c:/psdk3v2/ps3dev/ppu/bin/../lib/gcc/powerpc64-ps3-elf/4.5.2/../../../../powerpc64-ps3-elf/lib\libsysbase.a(write.o)

.gnu.attributes
 *(.gnu.attributes)

/DISCARD/
 *(.note.GNU-stack)
 *(.gnu_debuglink)
LOAD c:/psdk3v2/ps3dev/ppu/bin/../lib/gcc/powerpc64-ps3-elf/4.5.2/../../../../powerpc64-ps3-elf/lib/lv2-crti.o
LOAD c:/psdk3v2/ps3dev/ppu/bin/../lib/gcc/powerpc64-ps3-elf/4.5.2/crtbegin.o
LOAD c:/psdk3v2/ps3dev/ppu/bin/../lib/gcc/powerpc64-ps3-elf/4.5.2/../../../../powerpc64-ps3-elf/lib/lv2-crt0.o
LOAD c:/psdk3v2/ps3dev/ppu/bin/../lib/gcc/powerpc64-ps3-elf/4.5.2/../../../../powerpc64-ps3-elf/lib/lv2-sprx.o
LOAD loader.o
LOAD syscall8.o
LOAD c:/PSDK3v2/psl1ght/ppu/lib\liblv2.a
LOAD c:/psdk3v2/ps3dev/ppu/bin/../lib/gcc/powerpc64-ps3-elf/4.5.2/../../../../powerpc64-ps3-elf/lib\libm.a
LOAD c:/psdk3v2/ps3dev/ppu/bin/../lib/gcc/powerpc64-ps3-elf/4.5.2\libgcc.a
START GROUP
LOAD c:/psdk3v2/ps3dev/ppu/bin/../lib/gcc/powerpc64-ps3-elf/4.5.2/../../../../powerpc64-ps3-elf/lib\libsysbase.a
LOAD c:/psdk3v2/ps3dev/ppu/bin/../lib/gcc/powerpc64-ps3-elf/4.5.2/../../../../powerpc64-ps3-elf/lib\libc.a
LOAD c:/PSDK3v2/psl1ght/ppu/lib\librt.a
LOAD c:/PSDK3v2/psl1ght/ppu/lib\liblv2.a
END GROUP
LOAD c:/psdk3v2/ps3dev/ppu/bin/../lib/gcc/powerpc64-ps3-elf/4.5.2\libgcc.a
LOAD c:/psdk3v2/ps3dev/ppu/bin/../lib/gcc/powerpc64-ps3-elf/4.5.2/crtend.o
LOAD c:/psdk3v2/ps3dev/ppu/bin/../lib/gcc/powerpc64-ps3-elf/4.5.2/../../../../powerpc64-ps3-elf/lib/lv2-crtn.o
OUTPUT(C:/PSDK3v2/mingw/msys/1.0/home/Administrator/irismanager2.66U/loader/loader.elf elf64-powerpc)
